(lp1
(dp2
S'text'
p3
Vso far let's see what else we can come up with here
p4
sS'confidence'
p5
F0.98199999999999998
sS'start_time'
p6
F0.029999999999999999
sS'end_time'
p7
F3.1699999999999999
sa(dp8
g3
Vand Melissa you have something
p9
sg5
F0.995
sg6
F3.9100000000000001
sg7
F6.1299999999999999
sa(dp10
g3
Vyeah
p11
sg5
F0.97999999999999998
sg6
F6.7000000000000002
sg7
F7.1600000000000001
sa(dp12
g3
VI've been thinking about the working crowd and
p13
sg5
F0.91400000000000003
sg6
F7.6399999999999997
sg7
F10.09
sa(dp14
g3
VI think I know this might seem like a small thing but what about more electrical outlets a lot of people need the plugin
p15
sg5
F0.95399999999999996
sg6
F10.57
sg7
F17.489999999999998
sa(dp16
g3
Vyeah I know what you're saying these older buildings don't have so many and I've seen people with a laptop head over to Starbucks if they don't get one of our what three tables beside an outlet
p17
sg5
F0.94199999999999995
sg6
F18.109999999999999
sg7
F29.550000000000001
sa(dp18
g3
Vso more electrical outlets
p19
sg5
F0.996
sg6
F30.350000000000001
sg7
F32.689999999999998
sa(dp20
g3
Vand anything else
p21
sg5
F0.999
sg6
F33.189999999999998
sg7
F34.579999999999998
sa(dp22
g3
Vthink about every aspect of what we do here everything's fair game
p23
sg5
F0.93999999999999995
sg6
F36.340000000000003
sg7
F40.079999999999998
sa(dp24
g3
Vokay well
p25
sg5
F0.78500000000000003
sg6
F41.100000000000001
sg7
F42.549999999999997
sa(dp26
g3
Vwhat if we got more creative with our products names
p27
sg5
F0.93000000000000005
sg6
F43.140000000000001
sg7
F45.909999999999997
sa(dp28
g3
Vthat sounds interesting go on Eric
p29
sg5
F0.90500000000000003
sg6
F46.659999999999997
sg7
F48.920000000000002
sa(dp30
g3
Vso a lot of successful places have their own sort of language around their products
p31
sg5
F0.96699999999999997
sg6
F49.759999999999998
sg7
F54.799999999999997
sa(dp32
g3
Va you know like special names for different sizes of drinks
p33
sg5
F0.95499999999999996
sg6
F55.159999999999997
sg7
F58.630000000000003
sa(dp34
g3
Vbut also unique and catchy names for the items themselves
p35
sg5
F0.95499999999999996
sg6
F59.159999999999997
sg7
F62.200000000000003
sa(dp36
g3
Vyeah I'm getting creative with names is great but is that actually going to get someone new in the door
p37
sg5
F0.92800000000000005
sg6
F63.100000000000001
sg7
F69.079999999999998
sa(dp38
g3
Vokay now I'm remember we're not deciding on what will work here we're just getting ideas out
p39
sg5
F0.85799999999999998
sg6
F70.459999999999994
sg7
F76.090000000000003
sa(dp40
g3
Vno right or wrong ideas at this point
p41
sg5
F0.94099999999999995
sg6
F76.450000000000003
sg7
F78.260000000000005
sa(dp42
g3
VReid apologies
p43
sg5
F0.70599999999999996
sg6
F78.780000000000001
sg7
F80.200000000000003
sa(dp44
g3
Vjust to add another one here and this might be totally off
p45
sg5
F0.97299999999999998
sg6
F81.120000000000005
sg7
F85.150000000000006
sa(dp46
g3
Vbut we could consider a delivery service
p47
sg5
F0.999
sg6
F85.599999999999994
sg7
F87.959999999999994
sa(dp48
g3
Vpeople could pre order online and we could have a cut off time so we don't get slammed with delivery orders right at lunch time
p49
sg5
F0.88
sg6
F88.530000000000001
sg7
F95.879999999999995
sa(dp50
g3
Vdelivery I'll put that up here and pre ordering
p51
sg5
F0.753
sg6
F96.5
sg7
F100.06999999999999
sa(dp52
g3
Vnice one I've seen that done before I totally think that would work
p53
sg5
F0.98899999999999999
sg6
F100.86
sg7
F105.17
sa(dp54
g3
Vyes lots of great ideas
p55
sg5
F0.999
sg6
F105.87
sg7
F107.75
sa(dp56
g3
Vsome will need a bit more fleshing out but I think we've got a
p57
sg5
F0.84699999999999998
sg6
F108.14
sg7
F110.97
sa.