(dp1
Vspeaker_labels
p2
(lp3
(dp4
Vto
p5
F0.14999999999999999
sVconfidence
p6
F0.53100000000000003
sVspeaker
p7
I1
sVfrom
p8
F0.029999999999999999
sVfinal
p9
I00
sa(dp10
Vto
p11
F0.62
sVconfidence
p12
F0.53100000000000003
sVspeaker
p13
I1
sVfrom
p14
F0.14999999999999999
sVfinal
p15
I00
sa(dp16
Vto
p17
F1.3100000000000001
sVconfidence
p18
F0.39200000000000002
sVspeaker
p19
I2
sVfrom
p20
F1.0900000000000001
sVfinal
p21
I00
sa(dp22
Vto
p23
F1.46
sVconfidence
p24
F0.39200000000000002
sVspeaker
p25
I2
sVfrom
p26
F1.3100000000000001
sVfinal
p27
I00
sa(dp28
Vto
p29
F1.6699999999999999
sVconfidence
p30
F0.39200000000000002
sVspeaker
p31
I2
sVfrom
p32
F1.46
sVfinal
p33
I00
sa(dp34
Vto
p35
F1.99
sVconfidence
p36
F0.49199999999999999
sVspeaker
p37
I1
sVfrom
p38
F1.7
sVfinal
p39
I00
sa(dp40
Vto
p41
F2.0899999999999999
sVconfidence
p42
F0.49199999999999999
sVspeaker
p43
I1
sVfrom
p44
F1.99
sVfinal
p45
I00
sa(dp46
Vto
p47
F2.2200000000000002
sVconfidence
p48
F0.49199999999999999
sVspeaker
p49
I1
sVfrom
p50
F2.0899999999999999
sVfinal
p51
I00
sa(dp52
Vto
p53
F2.4199999999999999
sVconfidence
p54
F0.49199999999999999
sVspeaker
p55
I1
sVfrom
p56
F2.2200000000000002
sVfinal
p57
I00
sa(dp58
Vto
p59
F2.5699999999999998
sVconfidence
p60
F0.49199999999999999
sVspeaker
p61
I1
sVfrom
p62
F2.4199999999999999
sVfinal
p63
I00
sa(dp64
Vto
p65
F2.75
sVconfidence
p66
F0.49199999999999999
sVspeaker
p67
I1
sVfrom
p68
F2.5699999999999998
sVfinal
p69
I00
sa(dp70
Vto
p71
F3.1699999999999999
sVconfidence
p72
F0.49199999999999999
sVspeaker
p73
I1
sVfrom
p74
F2.75
sVfinal
p75
I00
sa(dp76
Vto
p77
F4.6600000000000001
sVconfidence
p78
F0.34499999999999997
sVspeaker
p79
I1
sVfrom
p80
F3.9100000000000001
sVfinal
p81
I00
sa(dp82
Vto
p83
F5.3300000000000001
sVconfidence
p84
F0.42799999999999999
sVspeaker
p85
I1
sVfrom
p86
F4.8200000000000003
sVfinal
p87
I00
sa(dp88
Vto
p89
F5.5300000000000002
sVconfidence
p90
F0.38
sVspeaker
p91
I1
sVfrom
p92
F5.3700000000000001
sVfinal
p93
I00
sa(dp94
Vto
p95
F5.6699999999999999
sVconfidence
p96
F0.38
sVspeaker
p97
I1
sVfrom
p98
F5.5300000000000002
sVfinal
p99
I00
sa(dp100
Vto
p101
F6.1299999999999999
sVconfidence
p102
F0.38
sVspeaker
p103
I1
sVfrom
p104
F5.6699999999999999
sVfinal
p105
I00
sa(dp106
Vto
p107
F7.1600000000000001
sVconfidence
p108
F0.41799999999999998
sVspeaker
p109
I2
sVfrom
p110
F6.7000000000000002
sVfinal
p111
I00
sa(dp112
Vto
p113
F7.8399999999999999
sVconfidence
p114
F0.42499999999999999
sVspeaker
p115
I2
sVfrom
p116
F7.6399999999999997
sVfinal
p117
I00
sa(dp118
Vto
p119
F7.9800000000000004
sVconfidence
p120
F0.42499999999999999
sVspeaker
p121
I2
sVfrom
p122
F7.8399999999999999
sVfinal
p123
I00
sa(dp124
Vto
p125
F8.3000000000000007
sVconfidence
p126
F0.42499999999999999
sVspeaker
p127
I2
sVfrom
p128
F7.9800000000000004
sVfinal
p129
I00
sa(dp130
Vto
p131
F8.5999999999999996
sVconfidence
p132
F0.42499999999999999
sVspeaker
p133
I2
sVfrom
p134
F8.3000000000000007
sVfinal
p135
I00
sa(dp136
Vto
p137
F8.6899999999999995
sVconfidence
p138
F0.42499999999999999
sVspeaker
p139
I2
sVfrom
p140
F8.5999999999999996
sVfinal
p141
I00
sa(dp142
Vto
p143
F9.1400000000000006
sVconfidence
p144
F0.42499999999999999
sVspeaker
p145
I2
sVfrom
p146
F8.6899999999999995
sVfinal
p147
I00
sa(dp148
Vto
p149
F9.6699999999999999
sVconfidence
p150
F0.42499999999999999
sVspeaker
p151
I2
sVfrom
p152
F9.1400000000000006
sVfinal
p153
I00
sa(dp154
Vto
p155
F10.09
sVconfidence
p156
F0.42199999999999999
sVspeaker
p157
I2
sVfrom
p158
F9.6999999999999993
sVfinal
p159
I00
sa(dp160
Vto
p161
F10.73
sVconfidence
p162
F0.44900000000000001
sVspeaker
p163
I2
sVfrom
p164
F10.57
sVfinal
p165
I00
sa(dp166
Vto
p167
F10.92
sVconfidence
p168
F0.44900000000000001
sVspeaker
p169
I2
sVfrom
p170
F10.73
sVfinal
p171
I00
sa(dp172
Vto
p173
F11.01
sVconfidence
p174
F0.44900000000000001
sVspeaker
p175
I2
sVfrom
p176
F10.92
sVfinal
p177
I00
sa(dp178
Vto
p179
F11.24
sVconfidence
p180
F0.44900000000000001
sVspeaker
p181
I2
sVfrom
p182
F11.01
sVfinal
p183
I00
sa(dp184
Vto
p185
F11.43
sVconfidence
p186
F0.44900000000000001
sVspeaker
p187
I2
sVfrom
p188
F11.24
sVfinal
p189
I00
sa(dp190
Vto
p191
F11.67
sVconfidence
p192
F0.44900000000000001
sVspeaker
p193
I2
sVfrom
p194
F11.43
sVfinal
p195
I00
sa(dp196
Vto
p197
F11.9
sVconfidence
p198
F0.44900000000000001
sVspeaker
p199
I2
sVfrom
p200
F11.67
sVfinal
p201
I00
sa(dp202
Vto
p203
F12.07
sVconfidence
p204
F0.44900000000000001
sVspeaker
p205
I2
sVfrom
p206
F11.9
sVfinal
p207
I00
sa(dp208
Vto
p209
F12.119999999999999
sVconfidence
p210
F0.44900000000000001
sVspeaker
p211
I2
sVfrom
p212
F12.07
sVfinal
p213
I00
sa(dp214
Vto
p215
F12.460000000000001
sVconfidence
p216
F0.44900000000000001
sVspeaker
p217
I2
sVfrom
p218
F12.119999999999999
sVfinal
p219
I00
sa(dp220
Vto
p221
F12.880000000000001
sVconfidence
p222
F0.44900000000000001
sVspeaker
p223
I2
sVfrom
p224
F12.460000000000001
sVfinal
p225
I00
sa(dp226
Vto
p227
F13.51
sVconfidence
p228
F0.438
sVspeaker
p229
I2
sVfrom
p230
F13.31
sVfinal
p231
I00
sa(dp232
Vto
p233
F13.73
sVconfidence
p234
F0.438
sVspeaker
p235
I2
sVfrom
p236
F13.51
sVfinal
p237
I00
sa(dp238
Vto
p239
F14.050000000000001
sVconfidence
p240
F0.438
sVspeaker
p241
I2
sVfrom
p242
F13.73
sVfinal
p243
I00
sa(dp244
Vto
p245
F14.390000000000001
sVconfidence
p246
F0.438
sVspeaker
p247
I2
sVfrom
p248
F14.050000000000001
sVfinal
p249
I00
sa(dp250
Vto
p251
F15.050000000000001
sVconfidence
p252
F0.438
sVspeaker
p253
I2
sVfrom
p254
F14.390000000000001
sVfinal
p255
I00
sa(dp256
Vto
p257
F15.69
sVconfidence
p258
F0.40999999999999998
sVspeaker
p259
I2
sVfrom
p260
F15.08
sVfinal
p261
I00
sa(dp262
Vto
p263
F16.030000000000001
sVconfidence
p264
F0.44900000000000001
sVspeaker
p265
I2
sVfrom
p266
F15.93
sVfinal
p267
I00
sa(dp268
Vto
p269
F16.25
sVconfidence
p270
F0.44900000000000001
sVspeaker
p271
I2
sVfrom
p272
F16.030000000000001
sVfinal
p273
I00
sa(dp274
Vto
p275
F16.309999999999999
sVconfidence
p276
F0.44900000000000001
sVspeaker
p277
I2
sVfrom
p278
F16.25
sVfinal
p279
I00
sa(dp280
Vto
p281
F16.600000000000001
sVconfidence
p282
F0.44900000000000001
sVspeaker
p283
I2
sVfrom
p284
F16.309999999999999
sVfinal
p285
I00
sa(dp286
Vto
p287
F16.800000000000001
sVconfidence
p288
F0.44900000000000001
sVspeaker
p289
I2
sVfrom
p290
F16.600000000000001
sVfinal
p291
I00
sa(dp292
Vto
p293
F16.879999999999999
sVconfidence
p294
F0.44900000000000001
sVspeaker
p295
I2
sVfrom
p296
F16.800000000000001
sVfinal
p297
I00
sa(dp298
Vto
p299
F17.489999999999998
sVconfidence
p300
F0.44900000000000001
sVspeaker
p301
I2
sVfrom
p302
F16.879999999999999
sVfinal
p303
I00
sa(dp304
Vto
p305
F18.5
sVconfidence
p306
F0.48499999999999999
sVspeaker
p307
I0
sVfrom
p308
F18.109999999999999
sVfinal
p309
I00
sa(dp310
Vto
p311
F18.969999999999999
sVconfidence
p312
F0.48499999999999999
sVspeaker
p313
I0
sVfrom
p314
F18.5
sVfinal
p315
I00
sa(dp316
Vto
p317
F19.149999999999999
sVconfidence
p318
F0.48499999999999999
sVspeaker
p319
I0
sVfrom
p320
F18.969999999999999
sVfinal
p321
I00
sa(dp322
Vto
p323
F19.260000000000002
sVconfidence
p324
F0.48499999999999999
sVspeaker
p325
I0
sVfrom
p326
F19.149999999999999
sVfinal
p327
I00
sa(dp328
Vto
p329
F19.379999999999999
sVconfidence
p330
F0.48499999999999999
sVspeaker
p331
I0
sVfrom
p332
F19.260000000000002
sVfinal
p333
I00
sa(dp334
Vto
p335
F19.870000000000001
sVconfidence
p336
F0.48499999999999999
sVspeaker
p337
I0
sVfrom
p338
F19.379999999999999
sVfinal
p339
I00
sa(dp340
Vto
p341
F20.41
sVconfidence
p342
F0.48699999999999999
sVspeaker
p343
I0
sVfrom
p344
F20.16
sVfinal
p345
I00
sa(dp346
Vto
p347
F20.670000000000002
sVconfidence
p348
F0.48699999999999999
sVspeaker
p349
I0
sVfrom
p350
F20.41
sVfinal
p351
I00
sa(dp352
Vto
p353
F21.129999999999999
sVconfidence
p354
F0.48699999999999999
sVspeaker
p355
I0
sVfrom
p356
F20.670000000000002
sVfinal
p357
I00
sa(dp358
Vto
p359
F21.370000000000001
sVconfidence
p360
F0.48699999999999999
sVspeaker
p361
I0
sVfrom
p362
F21.129999999999999
sVfinal
p363
I00
sa(dp364
Vto
p365
F21.57
sVconfidence
p366
F0.48699999999999999
sVspeaker
p367
I0
sVfrom
p368
F21.370000000000001
sVfinal
p369
I00
sa(dp370
Vto
p371
F21.77
sVconfidence
p372
F0.48699999999999999
sVspeaker
p373
I0
sVfrom
p374
F21.57
sVfinal
p375
I00
sa(dp376
Vto
p377
F22.140000000000001
sVconfidence
p378
F0.48699999999999999
sVspeaker
p379
I0
sVfrom
p380
F21.77
sVfinal
p381
I00
sa(dp382
Vto
p383
F22.68
sVconfidence
p384
F0.48799999999999999
sVspeaker
p385
I0
sVfrom
p386
F22.550000000000001
sVfinal
p387
I00
sa(dp388
Vto
p389
F22.84
sVconfidence
p390
F0.48799999999999999
sVspeaker
p391
I0
sVfrom
p392
F22.68
sVfinal
p393
I00
sa(dp394
Vto
p395
F23.059999999999999
sVconfidence
p396
F0.48799999999999999
sVspeaker
p397
I0
sVfrom
p398
F22.84
sVfinal
p399
I00
sa(dp400
Vto
p401
F23.399999999999999
sVconfidence
p402
F0.48799999999999999
sVspeaker
p403
I0
sVfrom
p404
F23.059999999999999
sVfinal
p405
I00
sa(dp406
Vto
p407
F23.550000000000001
sVconfidence
p408
F0.48799999999999999
sVspeaker
p409
I0
sVfrom
p410
F23.399999999999999
sVfinal
p411
I00
sa(dp412
Vto
p413
F23.59
sVconfidence
p414
F0.48799999999999999
sVspeaker
p415
I0
sVfrom
p416
F23.550000000000001
sVfinal
p417
I00
sa(dp418
Vto
p419
F24.199999999999999
sVconfidence
p420
F0.48799999999999999
sVspeaker
p421
I0
sVfrom
p422
F23.59
sVfinal
p423
I00
sa(dp424
Vto
p425
F24.350000000000001
sVconfidence
p426
F0.48799999999999999
sVspeaker
p427
I0
sVfrom
p428
F24.199999999999999
sVfinal
p429
I00
sa(dp430
Vto
p431
F24.530000000000001
sVconfidence
p432
F0.48799999999999999
sVspeaker
p433
I0
sVfrom
p434
F24.350000000000001
sVfinal
p435
I00
sa(dp436
Vto
p437
F24.609999999999999
sVconfidence
p438
F0.48799999999999999
sVspeaker
p439
I0
sVfrom
p440
F24.530000000000001
sVfinal
p441
I00
sa(dp442
Vto
p443
F25.329999999999998
sVconfidence
p444
F0.48799999999999999
sVspeaker
p445
I0
sVfrom
p446
F24.609999999999999
sVfinal
p447
I00
sa(dp448
Vto
p449
F25.440000000000001
sVconfidence
p450
F0.48799999999999999
sVspeaker
p451
I0
sVfrom
p452
F25.329999999999998
sVfinal
p453
I00
sa(dp454
Vto
p455
F25.539999999999999
sVconfidence
p456
F0.48799999999999999
sVspeaker
p457
I0
sVfrom
p458
F25.440000000000001
sVfinal
p459
I00
sa(dp460
Vto
p461
F25.73
sVconfidence
p462
F0.48799999999999999
sVspeaker
p463
I0
sVfrom
p464
F25.539999999999999
sVfinal
p465
I00
sa(dp466
Vto
p467
F25.91
sVconfidence
p468
F0.48799999999999999
sVspeaker
p469
I0
sVfrom
p470
F25.73
sVfinal
p471
I00
sa(dp472
Vto
p473
F26.050000000000001
sVconfidence
p474
F0.48799999999999999
sVspeaker
p475
I0
sVfrom
p476
F25.91
sVfinal
p477
I00
sa(dp478
Vto
p479
F26.190000000000001
sVconfidence
p480
F0.48799999999999999
sVspeaker
p481
I0
sVfrom
p482
F26.050000000000001
sVfinal
p483
I00
sa(dp484
Vto
p485
F26.600000000000001
sVconfidence
p486
F0.48799999999999999
sVspeaker
p487
I0
sVfrom
p488
F26.190000000000001
sVfinal
p489
I00
sa(dp490
Vto
p491
F27.309999999999999
sVconfidence
p492
F0.42699999999999999
sVspeaker
p493
I0
sVfrom
p494
F26.800000000000001
sVfinal
p495
I00
sa(dp496
Vto
p497
F27.870000000000001
sVconfidence
p498
F0.46300000000000002
sVspeaker
p499
I0
sVfrom
p500
F27.52
sVfinal
p501
I00
sa(dp502
Vto
p503
F28.5
sVconfidence
p504
F0.46300000000000002
sVspeaker
p505
I0
sVfrom
p506
F27.870000000000001
sVfinal
p507
I00
sa(dp508
Vto
p509
F28.899999999999999
sVconfidence
p510
F0.46300000000000002
sVspeaker
p511
I0
sVfrom
p512
F28.5
sVfinal
p513
I00
sa(dp514
Vto
p515
F28.98
sVconfidence
p516
F0.46300000000000002
sVspeaker
p517
I0
sVfrom
p518
F28.899999999999999
sVfinal
p519
I00
sa(dp520
Vto
p521
F29.550000000000001
sVconfidence
p522
F0.46300000000000002
sVspeaker
p523
I0
sVfrom
p524
F28.98
sVfinal
p525
I00
sa(dp526
Vto
p527
F31.039999999999999
sVconfidence
p528
F0.434
sVspeaker
p529
I1
sVfrom
p530
F30.350000000000001
sVfinal
p531
I00
sa(dp532
Vto
p533
F31.43
sVconfidence
p534
F0.54700000000000004
sVspeaker
p535
I1
sVfrom
p536
F31.140000000000001
sVfinal
p537
I00
sa(dp538
Vto
p539
F31.93
sVconfidence
p540
F0.54700000000000004
sVspeaker
p541
I1
sVfrom
p542
F31.43
sVfinal
p543
I00
sa(dp544
Vto
p545
F32.710000000000001
sVconfidence
p546
F0.54700000000000004
sVspeaker
p547
I1
sVfrom
p548
F31.93
sVfinal
p549
I00
sa(dp550
Vto
p551
F33.75
sVconfidence
p552
F0.48299999999999998
sVspeaker
p553
I1
sVfrom
p554
F33.189999999999998
sVfinal
p555
I00
sa(dp556
Vto
p557
F34.100000000000001
sVconfidence
p558
F0.46800000000000003
sVspeaker
p559
I1
sVfrom
p560
F33.789999999999999
sVfinal
p561
I00
sa(dp562
Vto
p563
F34.579999999999998
sVconfidence
p564
F0.46800000000000003
sVspeaker
p565
I1
sVfrom
p566
F34.100000000000001
sVfinal
p567
I00
sa(dp568
Vto
p569
F36.549999999999997
sVconfidence
p570
F0.44400000000000001
sVspeaker
p571
I1
sVfrom
p572
F36.340000000000003
sVfinal
p573
I00
sa(dp574
Vto
p575
F36.829999999999998
sVconfidence
p576
F0.44400000000000001
sVspeaker
p577
I1
sVfrom
p578
F36.549999999999997
sVfinal
p579
I00
sa(dp580
Vto
p581
F37.18
sVconfidence
p582
F0.439
sVspeaker
p583
I1
sVfrom
p584
F36.859999999999999
sVfinal
p585
I00
sa(dp586
Vto
p587
F37.68
sVconfidence
p588
F0.439
sVspeaker
p589
I1
sVfrom
p590
F37.18
sVfinal
p591
I00
sa(dp592
Vto
p593
F37.780000000000001
sVconfidence
p594
F0.439
sVspeaker
p595
I1
sVfrom
p596
F37.68
sVfinal
p597
I00
sa(dp598
Vto
p599
F37.920000000000002
sVconfidence
p600
F0.439
sVspeaker
p601
I1
sVfrom
p602
F37.780000000000001
sVfinal
p603
I00
sa(dp604
Vto
p605
F38.039999999999999
sVconfidence
p606
F0.439
sVspeaker
p607
I1
sVfrom
p608
F37.920000000000002
sVfinal
p609
I00
sa(dp610
Vto
p611
F38.229999999999997
sVconfidence
p612
F0.439
sVspeaker
p613
I1
sVfrom
p614
F38.039999999999999
sVfinal
p615
I00
sa(dp616
Vto
p617
F38.659999999999997
sVconfidence
p618
F0.439
sVspeaker
p619
I1
sVfrom
p620
F38.229999999999997
sVfinal
p621
I00
sa(dp622
Vto
p623
F39.409999999999997
sVconfidence
p624
F0.36299999999999999
sVspeaker
p625
I1
sVfrom
p626
F38.880000000000003
sVfinal
p627
I00
sa(dp628
Vto
p629
F39.649999999999999
sVconfidence
p630
F0.36299999999999999
sVspeaker
p631
I1
sVfrom
p632
F39.409999999999997
sVfinal
p633
I00
sa(dp634
Vto
p635
F40.079999999999998
sVconfidence
p636
F0.36299999999999999
sVspeaker
p637
I1
sVfrom
p638
F39.649999999999999
sVfinal
p639
I00
sa(dp640
Vto
p641
F41.829999999999998
sVconfidence
p642
F0.439
sVspeaker
p643
I0
sVfrom
p644
F41.100000000000001
sVfinal
p645
I00
sa(dp646
Vto
p647
F42.549999999999997
sVconfidence
p648
F0.435
sVspeaker
p649
I0
sVfrom
p650
F42.039999999999999
sVfinal
p651
I00
sa(dp652
Vto
p653
F43.329999999999998
sVconfidence
p654
F0.48899999999999999
sVspeaker
p655
I0
sVfrom
p656
F43.140000000000001
sVfinal
p657
I00
sa(dp658
Vto
p659
F43.490000000000002
sVconfidence
p660
F0.48899999999999999
sVspeaker
p661
I0
sVfrom
p662
F43.329999999999998
sVfinal
p663
I00
sa(dp664
Vto
p665
F43.600000000000001
sVconfidence
p666
F0.48899999999999999
sVspeaker
p667
I0
sVfrom
p668
F43.490000000000002
sVfinal
p669
I00
sa(dp670
Vto
p671
F43.880000000000003
sVconfidence
p672
F0.48899999999999999
sVspeaker
p673
I0
sVfrom
p674
F43.600000000000001
sVfinal
p675
I00
sa(dp676
Vto
p677
F44.07
sVconfidence
p678
F0.48899999999999999
sVspeaker
p679
I0
sVfrom
p680
F43.880000000000003
sVfinal
p681
I00
sa(dp682
Vto
p683
F44.57
sVconfidence
p684
F0.48899999999999999
sVspeaker
p685
I0
sVfrom
p686
F44.07
sVfinal
p687
I00
sa(dp688
Vto
p689
F44.729999999999997
sVconfidence
p690
F0.48899999999999999
sVspeaker
p691
I0
sVfrom
p692
F44.57
sVfinal
p693
I00
sa(dp694
Vto
p695
F44.829999999999998
sVconfidence
p696
F0.48899999999999999
sVspeaker
p697
I0
sVfrom
p698
F44.729999999999997
sVfinal
p699
I00
sa(dp700
Vto
p701
F45.340000000000003
sVconfidence
p702
F0.48899999999999999
sVspeaker
p703
I0
sVfrom
p704
F44.829999999999998
sVfinal
p705
I00
sa(dp706
Vto
p707
F45.93
sVconfidence
p708
F0.48899999999999999
sVspeaker
p709
I0
sVfrom
p710
F45.340000000000003
sVfinal
p711
I00
sa(dp712
Vto
p713
F46.880000000000003
sVconfidence
p714
F0.504
sVspeaker
p715
I1
sVfrom
p716
F46.659999999999997
sVfinal
p717
I00
sa(dp718
Vto
p719
F47.149999999999999
sVconfidence
p720
F0.504
sVspeaker
p721
I1
sVfrom
p722
F46.880000000000003
sVfinal
p723
I00
sa(dp724
Vto
p725
F47.810000000000002
sVconfidence
p726
F0.504
sVspeaker
p727
I1
sVfrom
p728
F47.149999999999999
sVfinal
p729
I00
sa(dp730
Vto
p731
F48.259999999999998
sVconfidence
p732
F0.47999999999999998
sVspeaker
p733
I1
sVfrom
p734
F48.079999999999998
sVfinal
p735
I00
sa(dp736
Vto
p737
F48.460000000000001
sVconfidence
p738
F0.47999999999999998
sVspeaker
p739
I1
sVfrom
p740
F48.259999999999998
sVfinal
p741
I00
sa(dp742
Vto
p743
F48.920000000000002
sVconfidence
p744
F0.47999999999999998
sVspeaker
p745
I1
sVfrom
p746
F48.460000000000001
sVfinal
p747
I00
sa(dp748
Vto
p749
F50.25
sVconfidence
p750
F0.60199999999999998
sVspeaker
p751
I0
sVfrom
p752
F49.759999999999998
sVfinal
p753
I00
sa(dp754
Vto
p755
F50.810000000000002
sVconfidence
p756
F0.65200000000000002
sVspeaker
p757
I0
sVfrom
p758
F50.689999999999998
sVfinal
p759
I00
sa(dp760
Vto
p761
F51.060000000000002
sVconfidence
p762
F0.65200000000000002
sVspeaker
p763
I0
sVfrom
p764
F50.810000000000002
sVfinal
p765
I00
sa(dp766
Vto
p767
F51.130000000000003
sVconfidence
p768
F0.65200000000000002
sVspeaker
p769
I0
sVfrom
p770
F51.060000000000002
sVfinal
p771
I00
sa(dp772
Vto
p773
F51.759999999999998
sVconfidence
p774
F0.65200000000000002
sVspeaker
p775
I0
sVfrom
p776
F51.130000000000003
sVfinal
p777
I00
sa(dp778
Vto
p779
F52.390000000000001
sVconfidence
p780
F0.65200000000000002
sVspeaker
p781
I0
sVfrom
p782
F51.759999999999998
sVfinal
p783
I00
sa(dp784
Vto
p785
F52.560000000000002
sVconfidence
p786
F0.65200000000000002
sVspeaker
p787
I0
sVfrom
p788
F52.390000000000001
sVfinal
p789
I00
sa(dp790
Vto
p791
F52.719999999999999
sVconfidence
p792
F0.65200000000000002
sVspeaker
p793
I0
sVfrom
p794
F52.560000000000002
sVfinal
p795
I00
sa(dp796
Vto
p797
F52.890000000000001
sVconfidence
p798
F0.65200000000000002
sVspeaker
p799
I0
sVfrom
p800
F52.719999999999999
sVfinal
p801
I00
sa(dp802
Vto
p803
F53.100000000000001
sVconfidence
p804
F0.65200000000000002
sVspeaker
p805
I0
sVfrom
p806
F52.890000000000001
sVfinal
p807
I00
sa(dp808
Vto
p809
F53.200000000000003
sVconfidence
p810
F0.65200000000000002
sVspeaker
p811
I0
sVfrom
p812
F53.100000000000001
sVfinal
p813
I00
sa(dp814
Vto
p815
F53.759999999999998
sVconfidence
p816
F0.65200000000000002
sVspeaker
p817
I0
sVfrom
p818
F53.200000000000003
sVfinal
p819
I00
sa(dp820
Vto
p821
F54.039999999999999
sVconfidence
p822
F0.65200000000000002
sVspeaker
p823
I0
sVfrom
p824
F53.759999999999998
sVfinal
p825
I00
sa(dp826
Vto
p827
F54.140000000000001
sVconfidence
p828
F0.65200000000000002
sVspeaker
p829
I0
sVfrom
p830
F54.039999999999999
sVfinal
p831
I00
sa(dp832
Vto
p833
F54.799999999999997
sVconfidence
p834
F0.65200000000000002
sVspeaker
p835
I0
sVfrom
p836
F54.140000000000001
sVfinal
p837
I00
sa(dp838
Vto
p839
F55.32
sVconfidence
p840
F0.64800000000000002
sVspeaker
p841
I0
sVfrom
p842
F55.159999999999997
sVfinal
p843
I00
sa(dp844
Vto
p845
F55.539999999999999
sVconfidence
p846
F0.64800000000000002
sVspeaker
p847
I0
sVfrom
p848
F55.32
sVfinal
p849
I00
sa(dp850
Vto
p851
F55.719999999999999
sVconfidence
p852
F0.64800000000000002
sVspeaker
p853
I0
sVfrom
p854
F55.539999999999999
sVfinal
p855
I00
sa(dp856
Vto
p857
F56.149999999999999
sVconfidence
p858
F0.64800000000000002
sVspeaker
p859
I0
sVfrom
p860
F55.719999999999999
sVfinal
p861
I00
sa(dp862
Vto
p863
F56.670000000000002
sVconfidence
p864
F0.64800000000000002
sVspeaker
p865
I0
sVfrom
p866
F56.149999999999999
sVfinal
p867
I00
sa(dp868
Vto
p869
F57.079999999999998
sVconfidence
p870
F0.64800000000000002
sVspeaker
p871
I0
sVfrom
p872
F56.670000000000002
sVfinal
p873
I00
sa(dp874
Vto
p875
F57.229999999999997
sVconfidence
p876
F0.64800000000000002
sVspeaker
p877
I0
sVfrom
p878
F57.079999999999998
sVfinal
p879
I00
sa(dp880
Vto
p881
F57.68
sVconfidence
p882
F0.64800000000000002
sVspeaker
p883
I0
sVfrom
p884
F57.229999999999997
sVfinal
p885
I00
sa(dp886
Vto
p887
F58.009999999999998
sVconfidence
p888
F0.64800000000000002
sVspeaker
p889
I0
sVfrom
p890
F57.68
sVfinal
p891
I00
sa(dp892
Vto
p893
F58.130000000000003
sVconfidence
p894
F0.64800000000000002
sVspeaker
p895
I0
sVfrom
p896
F58.009999999999998
sVfinal
p897
I00
sa(dp898
Vto
p899
F58.630000000000003
sVconfidence
p900
F0.64800000000000002
sVspeaker
p901
I0
sVfrom
p902
F58.130000000000003
sVfinal
p903
I00
sa(dp904
Vto
p905
F59.329999999999998
sVconfidence
p906
F0.64700000000000002
sVspeaker
p907
I0
sVfrom
p908
F59.159999999999997
sVfinal
p909
I00
sa(dp910
Vto
p911
F59.700000000000003
sVconfidence
p912
F0.64700000000000002
sVspeaker
p913
I0
sVfrom
p914
F59.329999999999998
sVfinal
p915
I00
sa(dp916
Vto
p917
F60.07
sVconfidence
p918
F0.64700000000000002
sVspeaker
p919
I0
sVfrom
p920
F59.700000000000003
sVfinal
p921
I00
sa(dp922
Vto
p923
F60.270000000000003
sVconfidence
p924
F0.64700000000000002
sVspeaker
p925
I0
sVfrom
p926
F60.07
sVfinal
p927
I00
sa(dp928
Vto
p929
F60.649999999999999
sVconfidence
p930
F0.64700000000000002
sVspeaker
p931
I0
sVfrom
p932
F60.270000000000003
sVfinal
p933
I00
sa(dp934
Vto
p935
F60.960000000000001
sVconfidence
p936
F0.64700000000000002
sVspeaker
p937
I0
sVfrom
p938
F60.649999999999999
sVfinal
p939
I00
sa(dp940
Vto
p941
F61.079999999999998
sVconfidence
p942
F0.64700000000000002
sVspeaker
p943
I0
sVfrom
p944
F60.960000000000001
sVfinal
p945
I00
sa(dp946
Vto
p947
F61.210000000000001
sVconfidence
p948
F0.64700000000000002
sVspeaker
p949
I0
sVfrom
p950
F61.079999999999998
sVfinal
p951
I00
sa(dp952
Vto
p953
F61.509999999999998
sVconfidence
p954
F0.64700000000000002
sVspeaker
p955
I0
sVfrom
p956
F61.210000000000001
sVfinal
p957
I00
sa(dp958
Vto
p959
F62.200000000000003
sVconfidence
p960
F0.64700000000000002
sVspeaker
p961
I0
sVfrom
p962
F61.509999999999998
sVfinal
p963
I00
sa(dp964
Vto
p965
F63.590000000000003
sVconfidence
p966
F0.57099999999999995
sVspeaker
p967
I0
sVfrom
p968
F63.100000000000001
sVfinal
p969
I00
sa(dp970
Vto
p971
F63.780000000000001
sVconfidence
p972
F0.57099999999999995
sVspeaker
p973
I0
sVfrom
p974
F63.590000000000003
sVfinal
p975
I00
sa(dp976
Vto
p977
F64.090000000000003
sVconfidence
p978
F0.57099999999999995
sVspeaker
p979
I0
sVfrom
p980
F63.780000000000001
sVfinal
p981
I00
sa(dp982
Vto
p983
F64.579999999999998
sVconfidence
p984
F0.57099999999999995
sVspeaker
p985
I0
sVfrom
p986
F64.090000000000003
sVfinal
p987
I00
sa(dp988
Vto
p989
F64.739999999999995
sVconfidence
p990
F0.57099999999999995
sVspeaker
p991
I0
sVfrom
p992
F64.579999999999998
sVfinal
p993
I00
sa(dp994
Vto
p995
F65.090000000000003
sVconfidence
p996
F0.57099999999999995
sVspeaker
p997
I0
sVfrom
p998
F64.739999999999995
sVfinal
p999
I00
sa(dp1000
Vto
p1001
F65.209999999999994
sVconfidence
p1002
F0.57099999999999995
sVspeaker
p1003
I0
sVfrom
p1004
F65.090000000000003
sVfinal
p1005
I00
sa(dp1006
Vto
p1007
F65.849999999999994
sVconfidence
p1008
F0.57099999999999995
sVspeaker
p1009
I0
sVfrom
p1010
F65.209999999999994
sVfinal
p1011
I00
sa(dp1012
Vto
p1013
F66.329999999999998
sVconfidence
p1014
F0.52400000000000002
sVspeaker
p1015
I0
sVfrom
p1016
F66.170000000000002
sVfinal
p1017
I00
sa(dp1018
Vto
p1019
F66.420000000000002
sVconfidence
p1020
F0.52400000000000002
sVspeaker
p1021
I0
sVfrom
p1022
F66.329999999999998
sVfinal
p1023
I00
sa(dp1024
Vto
p1025
F66.670000000000002
sVconfidence
p1026
F0.52400000000000002
sVspeaker
p1027
I0
sVfrom
p1028
F66.420000000000002
sVfinal
p1029
I00
sa(dp1030
Vto
p1031
F67.150000000000006
sVconfidence
p1032
F0.52400000000000002
sVspeaker
p1033
I0
sVfrom
p1034
F66.670000000000002
sVfinal
p1035
I00
sa(dp1036
Vto
p1037
F67.420000000000002
sVconfidence
p1038
F0.52400000000000002
sVspeaker
p1039
I0
sVfrom
p1040
F67.150000000000006
sVfinal
p1041
I00
sa(dp1042
Vto
p1043
F67.519999999999996
sVconfidence
p1044
F0.52400000000000002
sVspeaker
p1045
I0
sVfrom
p1046
F67.420000000000002
sVfinal
p1047
I00
sa(dp1048
Vto
p1049
F67.700000000000003
sVconfidence
p1050
F0.52400000000000002
sVspeaker
p1051
I0
sVfrom
p1052
F67.519999999999996
sVfinal
p1053
I00
sa(dp1054
Vto
p1055
F68.079999999999998
sVconfidence
p1056
F0.52400000000000002
sVspeaker
p1057
I0
sVfrom
p1058
F67.700000000000003
sVfinal
p1059
I00
sa(dp1060
Vto
p1061
F68.319999999999993
sVconfidence
p1062
F0.52400000000000002
sVspeaker
p1063
I0
sVfrom
p1064
F68.079999999999998
sVfinal
p1065
I00
sa(dp1066
Vto
p1067
F68.409999999999997
sVconfidence
p1068
F0.52400000000000002
sVspeaker
p1069
I0
sVfrom
p1070
F68.319999999999993
sVfinal
p1071
I00
sa(dp1072
Vto
p1073
F68.489999999999995
sVconfidence
p1074
F0.52400000000000002
sVspeaker
p1075
I0
sVfrom
p1076
F68.409999999999997
sVfinal
p1077
I00
sa(dp1078
Vto
p1079
F69.079999999999998
sVconfidence
p1080
F0.52400000000000002
sVspeaker
p1081
I0
sVfrom
p1082
F68.489999999999995
sVfinal
p1083
I00
sa(dp1084
Vto
p1085
F70.870000000000005
sVconfidence
p1086
F0.45400000000000001
sVspeaker
p1087
I1
sVfrom
p1088
F70.459999999999994
sVfinal
p1089
I00
sa(dp1090
Vto
p1091
F71.150000000000006
sVconfidence
p1092
F0.45400000000000001
sVspeaker
p1093
I1
sVfrom
p1094
F70.870000000000005
sVfinal
p1095
I00
sa(dp1096
Vto
p1097
F71.420000000000002
sVconfidence
p1098
F0.45400000000000001
sVspeaker
p1099
I1
sVfrom
p1100
F71.150000000000006
sVfinal
p1101
I00
sa(dp1102
Vto
p1103
F72.140000000000001
sVconfidence
p1104
F0.53400000000000003
sVspeaker
p1105
I1
sVfrom
p1106
F71.560000000000002
sVfinal
p1107
I00
sa(dp1108
Vto
p1109
F72.310000000000002
sVconfidence
p1110
F0.59199999999999997
sVspeaker
p1111
I1
sVfrom
p1112
F72.170000000000002
sVfinal
p1113
I00
sa(dp1114
Vto
p1115
F72.640000000000001
sVconfidence
p1116
F0.59199999999999997
sVspeaker
p1117
I1
sVfrom
p1118
F72.310000000000002
sVfinal
p1119
I00
sa(dp1120
Vto
p1121
F73.120000000000005
sVconfidence
p1122
F0.59199999999999997
sVspeaker
p1123
I1
sVfrom
p1124
F72.640000000000001
sVfinal
p1125
I00
sa(dp1126
Vto
p1127
F73.209999999999994
sVconfidence
p1128
F0.59199999999999997
sVspeaker
p1129
I1
sVfrom
p1130
F73.120000000000005
sVfinal
p1131
I00
sa(dp1132
Vto
p1133
F73.450000000000003
sVconfidence
p1134
F0.59199999999999997
sVspeaker
p1135
I1
sVfrom
p1136
F73.209999999999994
sVfinal
p1137
I00
sa(dp1138
Vto
p1139
F73.599999999999994
sVconfidence
p1140
F0.59199999999999997
sVspeaker
p1141
I1
sVfrom
p1142
F73.450000000000003
sVfinal
p1143
I00
sa(dp1144
Vto
p1145
F73.939999999999998
sVconfidence
p1146
F0.59199999999999997
sVspeaker
p1147
I1
sVfrom
p1148
F73.599999999999994
sVfinal
p1149
I00
sa(dp1150
Vto
p1151
F74.310000000000002
sVconfidence
p1152
F0.59199999999999997
sVspeaker
p1153
I1
sVfrom
p1154
F73.939999999999998
sVfinal
p1155
I00
sa(dp1156
Vto
p1157
F74.5
sVconfidence
p1158
F0.57299999999999995
sVspeaker
p1159
I1
sVfrom
p1160
F74.379999999999995
sVfinal
p1161
I00
sa(dp1162
Vto
p1163
F74.989999999999995
sVconfidence
p1164
F0.57299999999999995
sVspeaker
p1165
I1
sVfrom
p1166
F74.5
sVfinal
p1167
I00
sa(dp1168
Vto
p1169
F75.25
sVconfidence
p1170
F0.57299999999999995
sVspeaker
p1171
I1
sVfrom
p1172
F74.989999999999995
sVfinal
p1173
I00
sa(dp1174
Vto
p1175
F75.700000000000003
sVconfidence
p1176
F0.57299999999999995
sVspeaker
p1177
I1
sVfrom
p1178
F75.25
sVfinal
p1179
I00
sa(dp1180
Vto
p1181
F76.090000000000003
sVconfidence
p1182
F0.57299999999999995
sVspeaker
p1183
I1
sVfrom
p1184
F75.700000000000003
sVfinal
p1185
I00
sa(dp1186
Vto
p1187
F76.700000000000003
sVconfidence
p1188
F0.61499999999999999
sVspeaker
p1189
I1
sVfrom
p1190
F76.450000000000003
sVfinal
p1191
I00
sa(dp1192
Vto
p1193
F76.909999999999997
sVconfidence
p1194
F0.61499999999999999
sVspeaker
p1195
I1
sVfrom
p1196
F76.700000000000003
sVfinal
p1197
I00
sa(dp1198
Vto
p1199
F76.969999999999999
sVconfidence
p1200
F0.61499999999999999
sVspeaker
p1201
I1
sVfrom
p1202
F76.909999999999997
sVfinal
p1203
I00
sa(dp1204
Vto
p1205
F77.180000000000007
sVconfidence
p1206
F0.61499999999999999
sVspeaker
p1207
I1
sVfrom
p1208
F76.969999999999999
sVfinal
p1209
I00
sa(dp1210
Vto
p1211
F77.549999999999997
sVconfidence
p1212
F0.61499999999999999
sVspeaker
p1213
I1
sVfrom
p1214
F77.180000000000007
sVfinal
p1215
I00
sa(dp1216
Vto
p1217
F77.640000000000001
sVconfidence
p1218
F0.61499999999999999
sVspeaker
p1219
I1
sVfrom
p1220
F77.549999999999997
sVfinal
p1221
I00
sa(dp1222
Vto
p1223
F77.810000000000002
sVconfidence
p1224
F0.61499999999999999
sVspeaker
p1225
I1
sVfrom
p1226
F77.640000000000001
sVfinal
p1227
I00
sa(dp1228
Vto
p1229
F78.260000000000005
sVconfidence
p1230
F0.61499999999999999
sVspeaker
p1231
I1
sVfrom
p1232
F77.810000000000002
sVfinal
p1233
I00
sa(dp1234
Vto
p1235
F79.349999999999994
sVconfidence
p1236
F0.56699999999999995
sVspeaker
p1237
I0
sVfrom
p1238
F78.780000000000001
sVfinal
p1239
I00
sa(dp1240
Vto
p1241
F80.200000000000003
sVconfidence
p1242
F0.58099999999999996
sVspeaker
p1243
I0
sVfrom
p1244
F79.379999999999995
sVfinal
p1245
I00
sa(dp1246
Vto
p1247
F81.519999999999996
sVconfidence
p1248
F0.44600000000000001
sVspeaker
p1249
I2
sVfrom
p1250
F81.120000000000005
sVfinal
p1251
I00
sa(dp1252
Vto
p1253
F81.599999999999994
sVconfidence
p1254
F0.44600000000000001
sVspeaker
p1255
I2
sVfrom
p1256
F81.519999999999996
sVfinal
p1257
I00
sa(dp1258
Vto
p1259
F81.939999999999998
sVconfidence
p1260
F0.44600000000000001
sVspeaker
p1261
I2
sVfrom
p1262
F81.599999999999994
sVfinal
p1263
I00
sa(dp1264
Vto
p1265
F82.319999999999993
sVconfidence
p1266
F0.44500000000000001
sVspeaker
p1267
I2
sVfrom
p1268
F81.969999999999999
sVfinal
p1269
I00
sa(dp1270
Vto
p1271
F82.510000000000005
sVconfidence
p1272
F0.44500000000000001
sVspeaker
p1273
I2
sVfrom
p1274
F82.319999999999993
sVfinal
p1275
I00
sa(dp1276
Vto
p1277
F82.870000000000005
sVconfidence
p1278
F0.44500000000000001
sVspeaker
p1279
I2
sVfrom
p1280
F82.510000000000005
sVfinal
p1281
I00
sa(dp1282
Vto
p1283
F83.540000000000006
sVconfidence
p1284
F0.42999999999999999
sVspeaker
p1285
I2
sVfrom
p1286
F83.299999999999997
sVfinal
p1287
I00
sa(dp1288
Vto
p1289
F83.739999999999995
sVconfidence
p1290
F0.42999999999999999
sVspeaker
p1291
I2
sVfrom
p1292
F83.540000000000006
sVfinal
p1293
I00
sa(dp1294
Vto
p1295
F84.040000000000006
sVconfidence
p1296
F0.42999999999999999
sVspeaker
p1297
I2
sVfrom
p1298
F83.739999999999995
sVfinal
p1299
I00
sa(dp1300
Vto
p1301
F84.180000000000007
sVconfidence
p1302
F0.42999999999999999
sVspeaker
p1303
I2
sVfrom
p1304
F84.040000000000006
sVfinal
p1305
I00
sa(dp1306
Vto
p1307
F84.739999999999995
sVconfidence
p1308
F0.42999999999999999
sVspeaker
p1309
I2
sVfrom
p1310
F84.180000000000007
sVfinal
p1311
I00
sa(dp1312
Vto
p1313
F85.140000000000001
sVconfidence
p1314
F0.374
sVspeaker
p1315
I2
sVfrom
p1316
F84.769999999999996
sVfinal
p1317
I00
sa(dp1318
Vto
p1319
F85.840000000000003
sVconfidence
p1320
F0.441
sVspeaker
p1321
I2
sVfrom
p1322
F85.599999999999994
sVfinal
p1323
I00
sa(dp1324
Vto
p1325
F85.950000000000003
sVconfidence
p1326
F0.441
sVspeaker
p1327
I2
sVfrom
p1328
F85.840000000000003
sVfinal
p1329
I00
sa(dp1330
Vto
p1331
F86.280000000000001
sVconfidence
p1332
F0.441
sVspeaker
p1333
I2
sVfrom
p1334
F85.950000000000003
sVfinal
p1335
I00
sa(dp1336
Vto
p1337
F86.780000000000001
sVconfidence
p1338
F0.441
sVspeaker
p1339
I2
sVfrom
p1340
F86.280000000000001
sVfinal
p1341
I00
sa(dp1342
Vto
p1343
F86.870000000000005
sVconfidence
p1344
F0.441
sVspeaker
p1345
I2
sVfrom
p1346
F86.780000000000001
sVfinal
p1347
I00
sa(dp1348
Vto
p1349
F87.329999999999998
sVconfidence
p1350
F0.441
sVspeaker
p1351
I2
sVfrom
p1352
F86.870000000000005
sVfinal
p1353
I00
sa(dp1354
Vto
p1355
F87.959999999999994
sVconfidence
p1356
F0.441
sVspeaker
p1357
I2
sVfrom
p1358
F87.329999999999998
sVfinal
p1359
I00
sa(dp1360
Vto
p1361
F88.879999999999995
sVconfidence
p1362
F0.45100000000000001
sVspeaker
p1363
I2
sVfrom
p1364
F88.530000000000001
sVfinal
p1365
I00
sa(dp1366
Vto
p1367
F89.069999999999993
sVconfidence
p1368
F0.45100000000000001
sVspeaker
p1369
I2
sVfrom
p1370
F88.879999999999995
sVfinal
p1371
I00
sa(dp1372
Vto
p1373
F89.329999999999998
sVconfidence
p1374
F0.45100000000000001
sVspeaker
p1375
I2
sVfrom
p1376
F89.069999999999993
sVfinal
p1377
I00
sa(dp1378
Vto
p1379
F89.659999999999997
sVconfidence
p1380
F0.45100000000000001
sVspeaker
p1381
I2
sVfrom
p1382
F89.329999999999998
sVfinal
p1383
I00
sa(dp1384
Vto
p1385
F90.319999999999993
sVconfidence
p1386
F0.45100000000000001
sVspeaker
p1387
I2
sVfrom
p1388
F89.659999999999997
sVfinal
p1389
I00
sa(dp1390
Vto
p1391
F90.780000000000001
sVconfidence
p1392
F0.442
sVspeaker
p1393
I2
sVfrom
p1394
F90.609999999999999
sVfinal
p1395
I00
sa(dp1396
Vto
p1397
F90.879999999999995
sVconfidence
p1398
F0.442
sVspeaker
p1399
I2
sVfrom
p1400
F90.780000000000001
sVfinal
p1401
I00
sa(dp1402
Vto
p1403
F91.010000000000005
sVconfidence
p1404
F0.442
sVspeaker
p1405
I2
sVfrom
p1406
F90.879999999999995
sVfinal
p1407
I00
sa(dp1408
Vto
p1409
F91.189999999999998
sVconfidence
p1410
F0.442
sVspeaker
p1411
I2
sVfrom
p1412
F91.010000000000005
sVfinal
p1413
I00
sa(dp1414
Vto
p1415
F91.239999999999995
sVconfidence
p1416
F0.442
sVspeaker
p1417
I2
sVfrom
p1418
F91.189999999999998
sVfinal
p1419
I00
sa(dp1420
Vto
p1421
F91.540000000000006
sVconfidence
p1422
F0.442
sVspeaker
p1423
I2
sVfrom
p1424
F91.239999999999995
sVfinal
p1425
I00
sa(dp1426
Vto
p1427
F91.709999999999994
sVconfidence
p1428
F0.442
sVspeaker
p1429
I2
sVfrom
p1430
F91.540000000000006
sVfinal
p1431
I00
sa(dp1432
Vto
p1433
F92.040000000000006
sVconfidence
p1434
F0.442
sVspeaker
p1435
I2
sVfrom
p1436
F91.709999999999994
sVfinal
p1437
I00
sa(dp1438
Vto
p1439
F92.239999999999995
sVconfidence
p1440
F0.442
sVspeaker
p1441
I2
sVfrom
p1442
F92.040000000000006
sVfinal
p1443
I00
sa(dp1444
Vto
p1445
F92.359999999999999
sVconfidence
p1446
F0.442
sVspeaker
p1447
I2
sVfrom
p1448
F92.239999999999995
sVfinal
p1449
I00
sa(dp1450
Vto
p1451
F92.609999999999999
sVconfidence
p1452
F0.442
sVspeaker
p1453
I2
sVfrom
p1454
F92.359999999999999
sVfinal
p1455
I00
sa(dp1456
Vto
p1457
F92.819999999999993
sVconfidence
p1458
F0.442
sVspeaker
p1459
I2
sVfrom
p1460
F92.609999999999999
sVfinal
p1461
I00
sa(dp1462
Vto
p1463
F93.480000000000004
sVconfidence
p1464
F0.442
sVspeaker
p1465
I2
sVfrom
p1466
F92.819999999999993
sVfinal
p1467
I00
sa(dp1468
Vto
p1469
F93.739999999999995
sVconfidence
p1470
F0.442
sVspeaker
p1471
I2
sVfrom
p1472
F93.480000000000004
sVfinal
p1473
I00
sa(dp1474
Vto
p1475
F94.219999999999999
sVconfidence
p1476
F0.442
sVspeaker
p1477
I2
sVfrom
p1478
F93.739999999999995
sVfinal
p1479
I00
sa(dp1480
Vto
p1481
F94.730000000000004
sVconfidence
p1482
F0.442
sVspeaker
p1483
I2
sVfrom
p1484
F94.219999999999999
sVfinal
p1485
I00
sa(dp1486
Vto
p1487
F95.099999999999994
sVconfidence
p1488
F0.438
sVspeaker
p1489
I2
sVfrom
p1490
F94.760000000000005
sVfinal
p1491
I00
sa(dp1492
Vto
p1493
F95.219999999999999
sVconfidence
p1494
F0.438
sVspeaker
p1495
I2
sVfrom
p1496
F95.099999999999994
sVfinal
p1497
I00
sa(dp1498
Vto
p1499
F95.530000000000001
sVconfidence
p1500
F0.438
sVspeaker
p1501
I2
sVfrom
p1502
F95.219999999999999
sVfinal
p1503
I00
sa(dp1504
Vto
p1505
F95.879999999999995
sVconfidence
p1506
F0.438
sVspeaker
p1507
I2
sVfrom
p1508
F95.530000000000001
sVfinal
p1509
I00
sa(dp1510
Vto
p1511
F97.390000000000001
sVconfidence
p1512
F0.443
sVspeaker
p1513
I1
sVfrom
p1514
F96.5
sVfinal
p1515
I00
sa(dp1516
Vto
p1517
F97.870000000000005
sVconfidence
p1518
F0.47599999999999998
sVspeaker
p1519
I1
sVfrom
p1520
F97.739999999999995
sVfinal
p1521
I00
sa(dp1522
Vto
p1523
F98.060000000000002
sVconfidence
p1524
F0.47599999999999998
sVspeaker
p1525
I1
sVfrom
p1526
F97.870000000000005
sVfinal
p1527
I00
sa(dp1528
Vto
p1529
F98.200000000000003
sVconfidence
p1530
F0.47599999999999998
sVspeaker
p1531
I1
sVfrom
p1532
F98.060000000000002
sVfinal
p1533
I00
sa(dp1534
Vto
p1535
F98.370000000000005
sVconfidence
p1536
F0.47599999999999998
sVspeaker
p1537
I1
sVfrom
p1538
F98.200000000000003
sVfinal
p1539
I00
sa(dp1540
Vto
p1541
F98.659999999999997
sVconfidence
p1542
F0.47599999999999998
sVspeaker
p1543
I1
sVfrom
p1544
F98.370000000000005
sVfinal
p1545
I00
sa(dp1546
Vto
p1547
F99.390000000000001
sVconfidence
p1548
F0.46999999999999997
sVspeaker
p1549
I1
sVfrom
p1550
F99.030000000000001
sVfinal
p1551
I00
sa(dp1552
Vto
p1553
F99.599999999999994
sVconfidence
p1554
F0.46999999999999997
sVspeaker
p1555
I1
sVfrom
p1556
F99.390000000000001
sVfinal
p1557
I00
sa(dp1558
Vto
p1559
F100.06999999999999
sVconfidence
p1560
F0.46999999999999997
sVspeaker
p1561
I1
sVfrom
p1562
F99.599999999999994
sVfinal
p1563
I00
sa(dp1564
Vto
p1565
F101.2
sVconfidence
p1566
F0.443
sVspeaker
p1567
I0
sVfrom
p1568
F100.86
sVfinal
p1569
I00
sa(dp1570
Vto
p1571
F101.45999999999999
sVconfidence
p1572
F0.443
sVspeaker
p1573
I0
sVfrom
p1574
F101.2
sVfinal
p1575
I00
sa(dp1576
Vto
p1577
F101.92
sVconfidence
p1578
F0.47799999999999998
sVspeaker
p1579
I0
sVfrom
p1580
F101.70999999999999
sVfinal
p1581
I00
sa(dp1582
Vto
p1583
F102.17
sVconfidence
p1584
F0.47799999999999998
sVspeaker
p1585
I0
sVfrom
p1586
F101.92
sVfinal
p1587
I00
sa(dp1588
Vto
p1589
F102.34999999999999
sVconfidence
p1590
F0.47799999999999998
sVspeaker
p1591
I0
sVfrom
p1592
F102.17
sVfinal
p1593
I00
sa(dp1594
Vto
p1595
F102.55
sVconfidence
p1596
F0.47799999999999998
sVspeaker
p1597
I0
sVfrom
p1598
F102.34999999999999
sVfinal
p1599
I00
sa(dp1600
Vto
p1601
F103.03
sVconfidence
p1602
F0.47799999999999998
sVspeaker
p1603
I0
sVfrom
p1604
F102.55
sVfinal
p1605
I00
sa(dp1606
Vto
p1607
F103.45999999999999
sVconfidence
p1608
F0.496
sVspeaker
p1609
I0
sVfrom
p1610
F103.31
sVfinal
p1611
I00
sa(dp1612
Vto
p1613
F104.09999999999999
sVconfidence
p1614
F0.496
sVspeaker
p1615
I0
sVfrom
p1616
F103.45999999999999
sVfinal
p1617
I00
sa(dp1618
Vto
p1619
F104.38
sVconfidence
p1620
F0.496
sVspeaker
p1621
I0
sVfrom
p1622
F104.09999999999999
sVfinal
p1623
I00
sa(dp1624
Vto
p1625
F104.56999999999999
sVconfidence
p1626
F0.496
sVspeaker
p1627
I0
sVfrom
p1628
F104.38
sVfinal
p1629
I00
sa(dp1630
Vto
p1631
F104.7
sVconfidence
p1632
F0.496
sVspeaker
p1633
I0
sVfrom
p1634
F104.56999999999999
sVfinal
p1635
I00
sa(dp1636
Vto
p1637
F105.17
sVconfidence
p1638
F0.496
sVspeaker
p1639
I0
sVfrom
p1640
F104.7
sVfinal
p1641
I00
sa(dp1642
Vto
p1643
F106.37
sVconfidence
p1644
F0.45200000000000001
sVspeaker
p1645
I1
sVfrom
p1646
F105.87
sVfinal
p1647
I00
sa(dp1648
Vto
p1649
F106.77
sVconfidence
p1650
F0.45700000000000002
sVspeaker
p1651
I1
sVfrom
p1652
F106.40000000000001
sVfinal
p1653
I00
sa(dp1654
Vto
p1655
F106.86
sVconfidence
p1656
F0.45700000000000002
sVspeaker
p1657
I1
sVfrom
p1658
F106.77
sVfinal
p1659
I00
sa(dp1660
Vto
p1661
F107.09999999999999
sVconfidence
p1662
F0.45700000000000002
sVspeaker
p1663
I1
sVfrom
p1664
F106.86
sVfinal
p1665
I00
sa(dp1666
Vto
p1667
F107.75
sVconfidence
p1668
F0.45700000000000002
sVspeaker
p1669
I1
sVfrom
p1670
F107.09999999999999
sVfinal
p1671
I00
sa(dp1672
Vto
p1673
F108.48
sVconfidence
p1674
F0.46500000000000002
sVspeaker
p1675
I1
sVfrom
p1676
F108.14
sVfinal
p1677
I00
sa(dp1678
Vto
p1679
F108.58
sVconfidence
p1680
F0.46500000000000002
sVspeaker
p1681
I1
sVfrom
p1682
F108.48
sVfinal
p1683
I00
sa(dp1684
Vto
p1685
F108.77
sVconfidence
p1686
F0.46500000000000002
sVspeaker
p1687
I1
sVfrom
p1688
F108.58
sVfinal
p1689
I00
sa(dp1690
Vto
p1691
F108.81999999999999
sVconfidence
p1692
F0.46500000000000002
sVspeaker
p1693
I1
sVfrom
p1694
F108.77
sVfinal
p1695
I00
sa(dp1696
Vto
p1697
F109.04000000000001
sVconfidence
p1698
F0.46500000000000002
sVspeaker
p1699
I1
sVfrom
p1700
F108.81999999999999
sVfinal
p1701
I00
sa(dp1702
Vto
p1703
F109.22
sVconfidence
p1704
F0.46500000000000002
sVspeaker
p1705
I1
sVfrom
p1706
F109.04000000000001
sVfinal
p1707
I00
sa(dp1708
Vto
p1709
F109.7
sVconfidence
p1710
F0.46500000000000002
sVspeaker
p1711
I1
sVfrom
p1712
F109.22
sVfinal
p1713
I00
sa(dp1714
Vto
p1715
F110.12
sVconfidence
p1716
F0.46500000000000002
sVspeaker
p1717
I1
sVfrom
p1718
F109.7
sVfinal
p1719
I00
sa(dp1720
Vto
p1721
F110.28
sVconfidence
p1722
F0.46500000000000002
sVspeaker
p1723
I1
sVfrom
p1724
F110.12
sVfinal
p1725
I00
sa(dp1726
Vto
p1727
F110.36
sVconfidence
p1728
F0.46500000000000002
sVspeaker
p1729
I1
sVfrom
p1730
F110.28
sVfinal
p1731
I00
sa(dp1732
Vto
p1733
F110.62
sVconfidence
p1734
F0.46500000000000002
sVspeaker
p1735
I1
sVfrom
p1736
F110.36
sVfinal
p1737
I00
sa(dp1738
Vto
p1739
F110.73999999999999
sVconfidence
p1740
F0.46500000000000002
sVspeaker
p1741
I1
sVfrom
p1742
F110.62
sVfinal
p1743
I00
sa(dp1744
Vto
p1745
F110.89
sVconfidence
p1746
F0.46500000000000002
sVspeaker
p1747
I1
sVfrom
p1748
F110.73999999999999
sVfinal
p1749
I00
sa(dp1750
Vto
p1751
F110.97
sVconfidence
p1752
F0.46500000000000002
sVspeaker
p1753
I1
sVfrom
p1754
F110.89
sVfinal
p1755
I01
sasVresults
p1756
(lp1757
(dp1758
Valternatives
p1759
(lp1760
(dp1761
Vtimestamps
p1762
(lp1763
(lp1764
Vso
p1765
aF0.029999999999999999
aF0.14999999999999999
aa(lp1766
Vfar
p1767
aF0.14999999999999999
aF0.62
aa(lp1768
Vlet's
p1769
aF1.0900000000000001
aF1.3100000000000001
aa(lp1770
Vsee
p1771
aF1.3100000000000001
aF1.46
aa(lp1772
Vwhat
p1773
aF1.46
aF1.6699999999999999
aa(lp1774
Velse
p1775
aF1.7
aF1.99
aa(lp1776
Vwe
p1777
aF1.99
aF2.0899999999999999
aa(lp1778
Vcan
p1779
aF2.0899999999999999
aF2.2200000000000002
aa(lp1780
Vcome
p1781
aF2.2200000000000002
aF2.4199999999999999
aa(lp1782
Vup
p1783
aF2.4199999999999999
aF2.5699999999999998
aa(lp1784
Vwith
p1785
aF2.5699999999999998
aF2.75
aa(lp1786
Vhere
p1787
aF2.75
aF3.1699999999999999
aasVconfidence
p1788
F0.98199999999999998
sVtranscript
p1789
Vso far let's see what else we can come up with here 
p1790
sasVfinal
p1791
I01
sa(dp1792
Valternatives
p1793
(lp1794
(dp1795
Vtimestamps
p1796
(lp1797
(lp1798
Vand
p1799
aF3.9100000000000001
aF4.6600000000000001
aa(lp1800
VMelissa
p1801
aF4.8200000000000003
aF5.3300000000000001
aa(lp1802
Vyou
p1803
aF5.3700000000000001
aF5.5300000000000002
aa(lp1804
Vhave
p1805
aF5.5300000000000002
aF5.6699999999999999
aa(lp1806
Vsomething
p1807
aF5.6699999999999999
aF6.1299999999999999
aasVconfidence
p1808
F0.995
sVtranscript
p1809
Vand Melissa you have something 
p1810
sasVfinal
p1811
I01
sa(dp1812
Valternatives
p1813
(lp1814
(dp1815
Vtimestamps
p1816
(lp1817
(lp1818
Vyeah
p1819
aF6.7000000000000002
aF7.1600000000000001
aasVconfidence
p1820
F0.97999999999999998
sVtranscript
p1821
Vyeah 
p1822
sasVfinal
p1823
I01
sa(dp1824
Valternatives
p1825
(lp1826
(dp1827
Vtimestamps
p1828
(lp1829
(lp1830
VI've
p1831
aF7.6399999999999997
aF7.8399999999999999
aa(lp1832
Vbeen
p1833
aF7.8399999999999999
aF7.9800000000000004
aa(lp1834
Vthinking
p1835
aF7.9800000000000004
aF8.3000000000000007
aa(lp1836
Vabout
p1837
aF8.3000000000000007
aF8.5999999999999996
aa(lp1838
Vthe
p1839
aF8.5999999999999996
aF8.6899999999999995
aa(lp1840
Vworking
p1841
aF8.6899999999999995
aF9.1400000000000006
aa(lp1842
Vcrowd
p1843
aF9.1400000000000006
aF9.6699999999999999
aa(lp1844
Vand
p1845
aF9.6999999999999993
aF10.09
aasVconfidence
p1846
F0.92700000000000005
sVtranscript
p1847
VI've been thinking about the working crowd and 
p1848
sasVfinal
p1849
I01
sa(dp1850
Valternatives
p1851
(lp1852
(dp1853
Vtimestamps
p1854
(lp1855
(lp1856
VI
aF10.57
aF10.73
aa(lp1857
Vthink
p1858
aF10.73
aF10.92
aa(lp1859
VI
aF10.92
aF11.01
aa(lp1860
Vknow
p1861
aF11.01
aF11.24
aa(lp1862
Vthis
p1863
aF11.24
aF11.43
aa(lp1864
Vmight
p1865
aF11.43
aF11.67
aa(lp1866
Vseem
p1867
aF11.67
aF11.9
aa(lp1868
Vlike
p1869
aF11.9
aF12.07
aa(lp1870
Va
aF12.07
aF12.119999999999999
aa(lp1871
Vsmall
p1872
aF12.119999999999999
aF12.460000000000001
aa(lp1873
Vthing
p1874
aF12.460000000000001
aF12.880000000000001
aa(lp1875
Vbut
p1876
aF13.31
aF13.51
aa(lp1877
Vwhat
p1878
aF13.51
aF13.73
aa(lp1879
Vabout
p1880
aF13.73
aF14.050000000000001
aa(lp1881
Vmore
p1882
aF14.050000000000001
aF14.390000000000001
aa(lp1883
Velectrical
p1884
aF14.390000000000001
aF15.050000000000001
aa(lp1885
Voutlets
p1886
aF15.08
aF15.69
aa(lp1887
Va
aF15.93
aF16.030000000000001
aa(lp1888
Vlot
p1889
aF16.030000000000001
aF16.25
aa(lp1890
Vof
p1891
aF16.25
aF16.309999999999999
aa(lp1892
Vpeople
p1893
aF16.309999999999999
aF16.600000000000001
aa(lp1894
Vneed
p1895
aF16.600000000000001
aF16.800000000000001
aa(lp1896
Vthe
p1897
aF16.800000000000001
aF16.879999999999999
aa(lp1898
Vplugin
p1899
aF16.879999999999999
aF17.489999999999998
aasVconfidence
p1900
F0.95399999999999996
sVtranscript
p1901
VI think I know this might seem like a small thing but what about more electrical outlets a lot of people need the plugin 
p1902
sasVfinal
p1903
I01
sa(dp1904
Valternatives
p1905
(lp1906
(dp1907
Vtimestamps
p1908
(lp1909
(lp1910
Vyeah
p1911
aF18.109999999999999
aF18.5
aa(lp1912
VI
aF18.5
aF18.969999999999999
aa(lp1913
Vknow
p1914
aF18.969999999999999
aF19.149999999999999
aa(lp1915
Vwhat
p1916
aF19.149999999999999
aF19.260000000000002
aa(lp1917
Vyou're
p1918
aF19.260000000000002
aF19.379999999999999
aa(lp1919
Vsaying
p1920
aF19.379999999999999
aF19.870000000000001
aa(lp1921
Vthese
p1922
aF20.16
aF20.41
aa(lp1923
Volder
p1924
aF20.41
aF20.670000000000002
aa(lp1925
Vbuildings
p1926
aF20.670000000000002
aF21.129999999999999
aa(lp1927
Vdon't
p1928
aF21.129999999999999
aF21.370000000000001
aa(lp1929
Vhave
p1930
aF21.370000000000001
aF21.57
aa(lp1931
Vso
p1932
aF21.57
aF21.77
aa(lp1933
Vmany
p1934
aF21.77
aF22.140000000000001
aa(lp1935
Vand
p1936
aF22.550000000000001
aF22.68
aa(lp1937
VI've
p1938
aF22.68
aF22.84
aa(lp1939
Vseen
p1940
aF22.84
aF23.059999999999999
aa(lp1941
Vpeople
p1942
aF23.059999999999999
aF23.399999999999999
aa(lp1943
Vwith
p1944
aF23.399999999999999
aF23.550000000000001
aa(lp1945
Va
aF23.550000000000001
aF23.59
aa(lp1946
Vlaptop
p1947
aF23.59
aF24.199999999999999
aa(lp1948
Vhead
p1949
aF24.199999999999999
aF24.350000000000001
aa(lp1950
Vover
p1951
aF24.350000000000001
aF24.530000000000001
aa(lp1952
Vto
p1953
aF24.530000000000001
aF24.609999999999999
aa(lp1954
VStarbucks
p1955
aF24.609999999999999
aF25.329999999999998
aa(lp1956
Vif
p1957
aF25.329999999999998
aF25.440000000000001
aa(lp1958
Vthey
p1959
aF25.440000000000001
aF25.539999999999999
aa(lp1960
Vdon't
p1961
aF25.539999999999999
aF25.73
aa(lp1962
Vget
p1963
aF25.73
aF25.91
aa(lp1964
Vone
p1965
aF25.91
aF26.050000000000001
aa(lp1966
Vof
p1967
aF26.050000000000001
aF26.190000000000001
aa(lp1968
Vour
p1969
aF26.190000000000001
aF26.600000000000001
aa(lp1970
Vwhat
p1971
aF26.800000000000001
aF27.309999999999999
aa(lp1972
Vthree
p1973
aF27.52
aF27.870000000000001
aa(lp1974
Vtables
p1975
aF27.870000000000001
aF28.5
aa(lp1976
Vbeside
p1977
aF28.5
aF28.899999999999999
aa(lp1978
Van
p1979
aF28.899999999999999
aF28.98
aa(lp1980
Voutlet
p1981
aF28.98
aF29.550000000000001
aasVconfidence
p1982
F0.92700000000000005
sVtranscript
p1983
Vyeah I know what you're saying these older buildings don't have so many and I've seen people with a laptop head over to Starbucks if they don't get one of our what three tables beside an outlet 
p1984
sasVfinal
p1985
I01
sa(dp1986
Valternatives
p1987
(lp1988
(dp1989
Vtimestamps
p1990
(lp1991
(lp1992
Vso
p1993
aF30.350000000000001
aF31.039999999999999
aa(lp1994
Vmore
p1995
aF31.140000000000001
aF31.43
aa(lp1996
Velectrical
p1997
aF31.43
aF31.93
aa(lp1998
Voutlets
p1999
aF31.93
aF32.710000000000001
aasVconfidence
p2000
F0.996
sVtranscript
p2001
Vso more electrical outlets 
p2002
sasVfinal
p2003
I01
sa(dp2004
Valternatives
p2005
(lp2006
(dp2007
Vtimestamps
p2008
(lp2009
(lp2010
Vand
p2011
aF33.189999999999998
aF33.75
aa(lp2012
Vanything
p2013
aF33.789999999999999
aF34.100000000000001
aa(lp2014
Velse
p2015
aF34.100000000000001
aF34.579999999999998
aasVconfidence
p2016
F0.999
sVtranscript
p2017
Vand anything else 
p2018
sasVfinal
p2019
I01
sa(dp2020
Valternatives
p2021
(lp2022
(dp2023
Vtimestamps
p2024
(lp2025
(lp2026
Vthink
p2027
aF36.340000000000003
aF36.549999999999997
aa(lp2028
Vabout
p2029
aF36.549999999999997
aF36.829999999999998
aa(lp2030
Vevery
p2031
aF36.859999999999999
aF37.18
aa(lp2032
Vaspect
p2033
aF37.18
aF37.68
aa(lp2034
Vof
p2035
aF37.68
aF37.780000000000001
aa(lp2036
Vwhat
p2037
aF37.780000000000001
aF37.920000000000002
aa(lp2038
Vwe
p2039
aF37.920000000000002
aF38.039999999999999
aa(lp2040
Vdo
p2041
aF38.039999999999999
aF38.229999999999997
aa(lp2042
Vhere
p2043
aF38.229999999999997
aF38.659999999999997
aa(lp2044
Veverything's
p2045
aF38.880000000000003
aF39.409999999999997
aa(lp2046
Vfair
p2047
aF39.409999999999997
aF39.649999999999999
aa(lp2048
Vgame
p2049
aF39.649999999999999
aF40.079999999999998
aasVconfidence
p2050
F0.93999999999999995
sVtranscript
p2051
Vthink about every aspect of what we do here everything's fair game 
p2052
sasVfinal
p2053
I01
sa(dp2054
Valternatives
p2055
(lp2056
(dp2057
Vtimestamps
p2058
(lp2059
(lp2060
Vokay
p2061
aF41.100000000000001
aF41.829999999999998
aa(lp2062
Vwell
p2063
aF42.039999999999999
aF42.549999999999997
aasVconfidence
p2064
F0.79100000000000004
sVtranscript
p2065
Vokay well 
p2066
sasVfinal
p2067
I01
sa(dp2068
Valternatives
p2069
(lp2070
(dp2071
Vtimestamps
p2072
(lp2073
(lp2074
Vwhat
p2075
aF43.140000000000001
aF43.329999999999998
aa(lp2076
Vif
p2077
aF43.329999999999998
aF43.490000000000002
aa(lp2078
Vwe
p2079
aF43.490000000000002
aF43.600000000000001
aa(lp2080
Vgot
p2081
aF43.600000000000001
aF43.880000000000003
aa(lp2082
Vmore
p2083
aF43.880000000000003
aF44.07
aa(lp2084
Vcreative
p2085
aF44.07
aF44.57
aa(lp2086
Vwith
p2087
aF44.57
aF44.729999999999997
aa(lp2088
Vour
p2089
aF44.729999999999997
aF44.829999999999998
aa(lp2090
Vproducts
p2091
aF44.829999999999998
aF45.340000000000003
aa(lp2092
Vnames
p2093
aF45.340000000000003
aF45.93
aasVconfidence
p2094
F0.93200000000000005
sVtranscript
p2095
Vwhat if we got more creative with our products names 
p2096
sasVfinal
p2097
I01
sa(dp2098
Valternatives
p2099
(lp2100
(dp2101
Vtimestamps
p2102
(lp2103
(lp2104
Vthat
p2105
aF46.659999999999997
aF46.880000000000003
aa(lp2106
Vsounds
p2107
aF46.880000000000003
aF47.149999999999999
aa(lp2108
Vinteresting
p2109
aF47.149999999999999
aF47.810000000000002
aa(lp2110
Vgo
p2111
aF48.079999999999998
aF48.259999999999998
aa(lp2112
Von
p2113
aF48.259999999999998
aF48.460000000000001
aa(lp2114
VEric
p2115
aF48.460000000000001
aF48.920000000000002
aasVconfidence
p2116
F0.90600000000000003
sVtranscript
p2117
Vthat sounds interesting go on Eric 
p2118
sasVfinal
p2119
I01
sa(dp2120
Valternatives
p2121
(lp2122
(dp2123
Vtimestamps
p2124
(lp2125
(lp2126
Vso
p2127
aF49.759999999999998
aF50.25
aa(lp2128
Va
aF50.689999999999998
aF50.810000000000002
aa(lp2129
Vlot
p2130
aF50.810000000000002
aF51.060000000000002
aa(lp2131
Vof
p2132
aF51.060000000000002
aF51.130000000000003
aa(lp2133
Vsuccessful
p2134
aF51.130000000000003
aF51.759999999999998
aa(lp2135
Vplaces
p2136
aF51.759999999999998
aF52.390000000000001
aa(lp2137
Vhave
p2138
aF52.390000000000001
aF52.560000000000002
aa(lp2139
Vtheir
p2140
aF52.560000000000002
aF52.719999999999999
aa(lp2141
Vown
p2142
aF52.719999999999999
aF52.890000000000001
aa(lp2143
Vsort
p2144
aF52.890000000000001
aF53.100000000000001
aa(lp2145
Vof
p2146
aF53.100000000000001
aF53.200000000000003
aa(lp2147
Vlanguage
p2148
aF53.200000000000003
aF53.759999999999998
aa(lp2149
Varound
p2150
aF53.759999999999998
aF54.039999999999999
aa(lp2151
Vtheir
p2152
aF54.039999999999999
aF54.140000000000001
aa(lp2153
Vproducts
p2154
aF54.140000000000001
aF54.799999999999997
aasVconfidence
p2155
F0.96599999999999997
sVtranscript
p2156
Vso a lot of successful places have their own sort of language around their products 
p2157
sasVfinal
p2158
I01
sa(dp2159
Valternatives
p2160
(lp2161
(dp2162
Vtimestamps
p2163
(lp2164
(lp2165
Va
aF55.159999999999997
aF55.32
aa(lp2166
Vyou
p2167
aF55.32
aF55.539999999999999
aa(lp2168
Vknow
p2169
aF55.539999999999999
aF55.719999999999999
aa(lp2170
Vlike
p2171
aF55.719999999999999
aF56.149999999999999
aa(lp2172
Vspecial
p2173
aF56.149999999999999
aF56.670000000000002
aa(lp2174
Vnames
p2175
aF56.670000000000002
aF57.079999999999998
aa(lp2176
Vfor
p2177
aF57.079999999999998
aF57.229999999999997
aa(lp2178
Vdifferent
p2179
aF57.229999999999997
aF57.68
aa(lp2180
Vsizes
p2181
aF57.68
aF58.009999999999998
aa(lp2182
Vof
p2183
aF58.009999999999998
aF58.130000000000003
aa(lp2184
Vdrinks
p2185
aF58.130000000000003
aF58.630000000000003
aasVconfidence
p2186
F0.95499999999999996
sVtranscript
p2187
Va you know like special names for different sizes of drinks 
p2188
sasVfinal
p2189
I01
sa(dp2190
Valternatives
p2191
(lp2192
(dp2193
Vtimestamps
p2194
(lp2195
(lp2196
Vbut
p2197
aF59.159999999999997
aF59.329999999999998
aa(lp2198
Valso
p2199
aF59.329999999999998
aF59.700000000000003
aa(lp2200
Vunique
p2201
aF59.700000000000003
aF60.07
aa(lp2202
Vand
p2203
aF60.07
aF60.270000000000003
aa(lp2204
Vcatchy
p2205
aF60.270000000000003
aF60.649999999999999
aa(lp2206
Vnames
p2207
aF60.649999999999999
aF60.960000000000001
aa(lp2208
Vfor
p2209
aF60.960000000000001
aF61.079999999999998
aa(lp2210
Vthe
p2211
aF61.079999999999998
aF61.210000000000001
aa(lp2212
Vitems
p2213
aF61.210000000000001
aF61.509999999999998
aa(lp2214
Vthemselves
p2215
aF61.509999999999998
aF62.200000000000003
aasVconfidence
p2216
F0.95499999999999996
sVtranscript
p2217
Vbut also unique and catchy names for the items themselves 
p2218
sasVfinal
p2219
I01
sa(dp2220
Valternatives
p2221
(lp2222
(dp2223
Vtimestamps
p2224
(lp2225
(lp2226
Vyeah
p2227
aF63.100000000000001
aF63.590000000000003
aa(lp2228
VI'm
p2229
aF63.590000000000003
aF63.780000000000001
aa(lp2230
Vgetting
p2231
aF63.780000000000001
aF64.090000000000003
aa(lp2232
Vcreative
p2233
aF64.090000000000003
aF64.579999999999998
aa(lp2234
Vwith
p2235
aF64.579999999999998
aF64.739999999999995
aa(lp2236
Vnames
p2237
aF64.739999999999995
aF65.090000000000003
aa(lp2238
Vis
p2239
aF65.090000000000003
aF65.209999999999994
aa(lp2240
Vgreat
p2241
aF65.209999999999994
aF65.849999999999994
aa(lp2242
Vbut
p2243
aF66.170000000000002
aF66.329999999999998
aa(lp2244
Vis
p2245
aF66.329999999999998
aF66.420000000000002
aa(lp2246
Vthat
p2247
aF66.420000000000002
aF66.670000000000002
aa(lp2248
Vactually
p2249
aF66.670000000000002
aF67.150000000000006
aa(lp2250
Vgoing
p2251
aF67.150000000000006
aF67.420000000000002
aa(lp2252
Vto
p2253
aF67.420000000000002
aF67.519999999999996
aa(lp2254
Vget
p2255
aF67.519999999999996
aF67.700000000000003
aa(lp2256
Vsomeone
p2257
aF67.700000000000003
aF68.079999999999998
aa(lp2258
Vnew
p2259
aF68.079999999999998
aF68.319999999999993
aa(lp2260
Vin
p2261
aF68.319999999999993
aF68.409999999999997
aa(lp2262
Vthe
p2263
aF68.409999999999997
aF68.489999999999995
aa(lp2264
Vdoor
p2265
aF68.489999999999995
aF69.079999999999998
aasVconfidence
p2266
F0.92900000000000005
sVtranscript
p2267
Vyeah I'm getting creative with names is great but is that actually going to get someone new in the door 
p2268
sasVfinal
p2269
I01
sa(dp2270
Valternatives
p2271
(lp2272
(dp2273
Vtimestamps
p2274
(lp2275
(lp2276
Vokay
p2277
aF70.459999999999994
aF70.870000000000005
aa(lp2278
Vnow
p2279
aF70.870000000000005
aF71.150000000000006
aa(lp2280
VI'm
p2281
aF71.150000000000006
aF71.420000000000002
aa(lp2282
Vremember
p2283
aF71.560000000000002
aF72.140000000000001
aa(lp2284
Vwe're
p2285
aF72.170000000000002
aF72.310000000000002
aa(lp2286
Vnot
p2287
aF72.310000000000002
aF72.640000000000001
aa(lp2288
Vdeciding
p2289
aF72.640000000000001
aF73.120000000000005
aa(lp2290
Von
p2291
aF73.120000000000005
aF73.209999999999994
aa(lp2292
Vwhat
p2293
aF73.209999999999994
aF73.450000000000003
aa(lp2294
Vwill
p2295
aF73.450000000000003
aF73.599999999999994
aa(lp2296
Vwork
p2297
aF73.599999999999994
aF73.939999999999998
aa(lp2298
Vhere
p2299
aF73.939999999999998
aF74.310000000000002
aa(lp2300
Vwe're
p2301
aF74.379999999999995
aF74.5
aa(lp2302
Vjust
p2303
aF74.5
aF74.989999999999995
aa(lp2304
Vgetting
p2305
aF74.989999999999995
aF75.25
aa(lp2306
Videas
p2307
aF75.25
aF75.700000000000003
aa(lp2308
Vout
p2309
aF75.700000000000003
aF76.090000000000003
aasVconfidence
p2310
F0.84899999999999998
sVtranscript
p2311
Vokay now I'm remember we're not deciding on what will work here we're just getting ideas out 
p2312
sasVfinal
p2313
I01
sa(dp2314
Valternatives
p2315
(lp2316
(dp2317
Vtimestamps
p2318
(lp2319
(lp2320
Vno
p2321
aF76.450000000000003
aF76.700000000000003
aa(lp2322
Vright
p2323
aF76.700000000000003
aF76.909999999999997
aa(lp2324
Vor
p2325
aF76.909999999999997
aF76.969999999999999
aa(lp2326
Vwrong
p2327
aF76.969999999999999
aF77.180000000000007
aa(lp2328
Videas
p2329
aF77.180000000000007
aF77.549999999999997
aa(lp2330
Vat
p2331
aF77.549999999999997
aF77.640000000000001
aa(lp2332
Vthis
p2333
aF77.640000000000001
aF77.810000000000002
aa(lp2334
Vpoint
p2335
aF77.810000000000002
aF78.260000000000005
aasVconfidence
p2336
F0.94099999999999995
sVtranscript
p2337
Vno right or wrong ideas at this point 
p2338
sasVfinal
p2339
I01
sa(dp2340
Valternatives
p2341
(lp2342
(dp2343
Vtimestamps
p2344
(lp2345
(lp2346
VReid
p2347
aF78.780000000000001
aF79.349999999999994
aa(lp2348
Vapologies
p2349
aF79.379999999999995
aF80.200000000000003
aasVconfidence
p2350
F0.70399999999999996
sVtranscript
p2351
VReid apologies 
p2352
sasVfinal
p2353
I01
sa(dp2354
Valternatives
p2355
(lp2356
(dp2357
Vtimestamps
p2358
(lp2359
(lp2360
Vjust
p2361
aF81.120000000000005
aF81.519999999999996
aa(lp2362
Vto
p2363
aF81.519999999999996
aF81.599999999999994
aa(lp2364
Vadd
p2365
aF81.599999999999994
aF81.939999999999998
aa(lp2366
Vanother
p2367
aF81.969999999999999
aF82.319999999999993
aa(lp2368
Vone
p2369
aF82.319999999999993
aF82.510000000000005
aa(lp2370
Vhere
p2371
aF82.510000000000005
aF82.870000000000005
aa(lp2372
Vand
p2373
aF83.299999999999997
aF83.540000000000006
aa(lp2374
Vthis
p2375
aF83.540000000000006
aF83.739999999999995
aa(lp2376
Vmight
p2377
aF83.739999999999995
aF84.040000000000006
aa(lp2378
Vbe
p2379
aF84.040000000000006
aF84.180000000000007
aa(lp2380
Vtotally
p2381
aF84.180000000000007
aF84.739999999999995
aa(lp2382
Voff
p2383
aF84.769999999999996
aF85.140000000000001
aasVconfidence
p2384
F0.97299999999999998
sVtranscript
p2385
Vjust to add another one here and this might be totally off 
p2386
sasVfinal
p2387
I01
sa(dp2388
Valternatives
p2389
(lp2390
(dp2391
Vtimestamps
p2392
(lp2393
(lp2394
Vbut
p2395
aF85.599999999999994
aF85.840000000000003
aa(lp2396
Vwe
p2397
aF85.840000000000003
aF85.950000000000003
aa(lp2398
Vcould
p2399
aF85.950000000000003
aF86.280000000000001
aa(lp2400
Vconsider
p2401
aF86.280000000000001
aF86.780000000000001
aa(lp2402
Va
aF86.780000000000001
aF86.870000000000005
aa(lp2403
Vdelivery
p2404
aF86.870000000000005
aF87.329999999999998
aa(lp2405
Vservice
p2406
aF87.329999999999998
aF87.959999999999994
aasVconfidence
p2407
F0.999
sVtranscript
p2408
Vbut we could consider a delivery service 
p2409
sasVfinal
p2410
I01
sa(dp2411
Valternatives
p2412
(lp2413
(dp2414
Vtimestamps
p2415
(lp2416
(lp2417
Vpeople
p2418
aF88.530000000000001
aF88.879999999999995
aa(lp2419
Vcould
p2420
aF88.879999999999995
aF89.069999999999993
aa(lp2421
Vpre
p2422
aF89.069999999999993
aF89.329999999999998
aa(lp2423
Vorder
p2424
aF89.329999999999998
aF89.659999999999997
aa(lp2425
Vonline
p2426
aF89.659999999999997
aF90.319999999999993
aa(lp2427
Vand
p2428
aF90.609999999999999
aF90.780000000000001
aa(lp2429
Vwe
p2430
aF90.780000000000001
aF90.879999999999995
aa(lp2431
Vcould
p2432
aF90.879999999999995
aF91.010000000000005
aa(lp2433
Vhave
p2434
aF91.010000000000005
aF91.189999999999998
aa(lp2435
Va
aF91.189999999999998
aF91.239999999999995
aa(lp2436
Vcut
p2437
aF91.239999999999995
aF91.540000000000006
aa(lp2438
Voff
p2439
aF91.540000000000006
aF91.709999999999994
aa(lp2440
Vtime
p2441
aF91.709999999999994
aF92.040000000000006
aa(lp2442
Vso
p2443
aF92.040000000000006
aF92.239999999999995
aa(lp2444
Vwe
p2445
aF92.239999999999995
aF92.359999999999999
aa(lp2446
Vdon't
p2447
aF92.359999999999999
aF92.609999999999999
aa(lp2448
Vget
p2449
aF92.609999999999999
aF92.819999999999993
aa(lp2450
Vslammed
p2451
aF92.819999999999993
aF93.480000000000004
aa(lp2452
Vwith
p2453
aF93.480000000000004
aF93.739999999999995
aa(lp2454
Vdelivery
p2455
aF93.739999999999995
aF94.219999999999999
aa(lp2456
Vorders
p2457
aF94.219999999999999
aF94.730000000000004
aa(lp2458
Vright
p2459
aF94.760000000000005
aF95.099999999999994
aa(lp2460
Vat
p2461
aF95.099999999999994
aF95.219999999999999
aa(lp2462
Vlunch
p2463
aF95.219999999999999
aF95.530000000000001
aa(lp2464
Vtime
p2465
aF95.530000000000001
aF95.879999999999995
aasVconfidence
p2466
F0.878
sVtranscript
p2467
Vpeople could pre order online and we could have a cut off time so we don't get slammed with delivery orders right at lunch time 
p2468
sasVfinal
p2469
I01
sa(dp2470
Valternatives
p2471
(lp2472
(dp2473
Vtimestamps
p2474
(lp2475
(lp2476
Vdelivery
p2477
aF96.5
aF97.390000000000001
aa(lp2478
VI'll
p2479
aF97.739999999999995
aF97.870000000000005
aa(lp2480
Vput
p2481
aF97.870000000000005
aF98.060000000000002
aa(lp2482
Vthat
p2483
aF98.060000000000002
aF98.200000000000003
aa(lp2484
Vup
p2485
aF98.200000000000003
aF98.370000000000005
aa(lp2486
Vhere
p2487
aF98.370000000000005
aF98.659999999999997
aa(lp2488
Vand
p2489
aF99.030000000000001
aF99.390000000000001
aa(lp2490
Vpre
p2491
aF99.390000000000001
aF99.599999999999994
aa(lp2492
Vordering
p2493
aF99.599999999999994
aF100.06999999999999
aasVconfidence
p2494
F0.78100000000000003
sVtranscript
p2495
Vdelivery I'll put that up here and pre ordering 
p2496
sasVfinal
p2497
I01
sa(dp2498
Valternatives
p2499
(lp2500
(dp2501
Vtimestamps
p2502
(lp2503
(lp2504
Vnice
p2505
aF100.86
aF101.2
aa(lp2506
Vone
p2507
aF101.2
aF101.45999999999999
aa(lp2508
VI've
p2509
aF101.70999999999999
aF101.92
aa(lp2510
Vseen
p2511
aF101.92
aF102.17
aa(lp2512
Vthat
p2513
aF102.17
aF102.34999999999999
aa(lp2514
Vdone
p2515
aF102.34999999999999
aF102.55
aa(lp2516
Vbefore
p2517
aF102.55
aF103.03
aa(lp2518
VI
aF103.31
aF103.45999999999999
aa(lp2519
Vtotally
p2520
aF103.45999999999999
aF104.09999999999999
aa(lp2521
Vthink
p2522
aF104.09999999999999
aF104.38
aa(lp2523
Vthat
p2524
aF104.38
aF104.56999999999999
aa(lp2525
Vwould
p2526
aF104.56999999999999
aF104.7
aa(lp2527
Vwork
p2528
aF104.7
aF105.17
aasVconfidence
p2529
F0.98899999999999999
sVtranscript
p2530
Vnice one I've seen that done before I totally think that would work 
p2531
sasVfinal
p2532
I01
sa(dp2533
Valternatives
p2534
(lp2535
(dp2536
Vtimestamps
p2537
(lp2538
(lp2539
Vyes
p2540
aF105.87
aF106.37
aa(lp2541
Vlots
p2542
aF106.40000000000001
aF106.77
aa(lp2543
Vof
p2544
aF106.77
aF106.86
aa(lp2545
Vgreat
p2546
aF106.86
aF107.09999999999999
aa(lp2547
Videas
p2548
aF107.09999999999999
aF107.75
aasVconfidence
p2549
F0.999
sVtranscript
p2550
Vyes lots of great ideas 
p2551
sasVfinal
p2552
I01
sa(dp2553
Valternatives
p2554
(lp2555
(dp2556
Vtimestamps
p2557
(lp2558
(lp2559
Vsome
p2560
aF108.14
aF108.48
aa(lp2561
Vwill
p2562
aF108.48
aF108.58
aa(lp2563
Vneed
p2564
aF108.58
aF108.77
aa(lp2565
Va
aF108.77
aF108.81999999999999
aa(lp2566
Vbit
p2567
aF108.81999999999999
aF109.04000000000001
aa(lp2568
Vmore
p2569
aF109.04000000000001
aF109.22
aa(lp2570
Vfleshing
p2571
aF109.22
aF109.7
aa(lp2572
Vout
p2573
aF109.7
aF110.12
aa(lp2574
Vbut
p2575
aF110.12
aF110.28
aa(lp2576
VI
aF110.28
aF110.36
aa(lp2577
Vthink
p2578
aF110.36
aF110.62
aa(lp2579
Vwe've
p2580
aF110.62
aF110.73999999999999
aa(lp2581
Vgot
p2582
aF110.73999999999999
aF110.89
aa(lp2583
Va
aF110.89
aF110.97
aasVconfidence
p2584
F0.84399999999999997
sVtranscript
p2585
Vsome will need a bit more fleshing out but I think we've got a 
p2586
sasVfinal
p2587
I01
sasVresult_index
p2588
I0
sVwarnings
p2589
(lp2590
VUnknown arguments: continuous.
p2591
as.