(dp1
Vspeaker_labels
p2
(lp3
(dp4
Vto
p5
F1.79
sVconfidence
p6
F0.5
sVspeaker
p7
I2
sVfrom
p8
F0.92000000000000004
sVfinal
p9
I00
sa(dp10
Vto
p11
F2.5600000000000001
sVconfidence
p12
F0.47699999999999998
sVspeaker
p13
I2
sVfrom
p14
F2.29
sVfinal
p15
I00
sa(dp16
Vto
p17
F2.8399999999999999
sVconfidence
p18
F0.47699999999999998
sVspeaker
p19
I2
sVfrom
p20
F2.5600000000000001
sVfinal
p21
I00
sa(dp22
Vto
p23
F3.23
sVconfidence
p24
F0.47699999999999998
sVspeaker
p25
I2
sVfrom
p26
F2.8399999999999999
sVfinal
p27
I00
sa(dp28
Vto
p29
F3.6200000000000001
sVconfidence
p30
F0.47699999999999998
sVspeaker
p31
I2
sVfrom
p32
F3.23
sVfinal
p33
I00
sa(dp34
Vto
p35
F4.5899999999999999
sVconfidence
p36
F0.50700000000000001
sVspeaker
p37
I2
sVfrom
p38
F4.1799999999999997
sVfinal
p39
I00
sa(dp40
Vto
p41
F5.1200000000000001
sVconfidence
p42
F0.50700000000000001
sVspeaker
p43
I2
sVfrom
p44
F4.5899999999999999
sVfinal
p45
I00
sa(dp46
Vto
p47
F5.2800000000000002
sVconfidence
p48
F0.50700000000000001
sVspeaker
p49
I2
sVfrom
p50
F5.1200000000000001
sVfinal
p51
I00
sa(dp52
Vto
p53
F5.7300000000000004
sVconfidence
p54
F0.50700000000000001
sVspeaker
p55
I2
sVfrom
p56
F5.2800000000000002
sVfinal
p57
I00
sa(dp58
Vto
p59
F6.5300000000000002
sVconfidence
p60
F0.50700000000000001
sVspeaker
p61
I2
sVfrom
p62
F5.7300000000000004
sVfinal
p63
I00
sa(dp64
Vto
p65
F7.3300000000000001
sVconfidence
p66
F0.51400000000000001
sVspeaker
p67
I2
sVfrom
p68
F7.04
sVfinal
p69
I00
sa(dp70
Vto
p71
F7.6500000000000004
sVconfidence
p72
F0.51400000000000001
sVspeaker
p73
I2
sVfrom
p74
F7.3300000000000001
sVfinal
p75
I00
sa(dp76
Vto
p77
F7.9800000000000004
sVconfidence
p78
F0.51400000000000001
sVspeaker
p79
I2
sVfrom
p80
F7.6500000000000004
sVfinal
p81
I00
sa(dp82
Vto
p83
F8.5299999999999994
sVconfidence
p84
F0.51400000000000001
sVspeaker
p85
I2
sVfrom
p86
F7.9800000000000004
sVfinal
p87
I00
sa(dp88
Vto
p89
F8.9000000000000004
sVconfidence
p90
F0.51400000000000001
sVspeaker
p91
I2
sVfrom
p92
F8.5299999999999994
sVfinal
p93
I00
sa(dp94
Vto
p95
F9.2400000000000002
sVconfidence
p96
F0.51400000000000001
sVspeaker
p97
I2
sVfrom
p98
F8.9000000000000004
sVfinal
p99
I00
sa(dp100
Vto
p101
F9.75
sVconfidence
p102
F0.51400000000000001
sVspeaker
p103
I2
sVfrom
p104
F9.2400000000000002
sVfinal
p105
I00
sa(dp106
Vto
p107
F10.15
sVconfidence
p108
F0.55300000000000005
sVspeaker
p109
I2
sVfrom
p110
F9.8200000000000003
sVfinal
p111
I00
sa(dp112
Vto
p113
F10.43
sVconfidence
p114
F0.55300000000000005
sVspeaker
p115
I2
sVfrom
p116
F10.15
sVfinal
p117
I00
sa(dp118
Vto
p119
F10.66
sVconfidence
p120
F0.55300000000000005
sVspeaker
p121
I2
sVfrom
p122
F10.43
sVfinal
p123
I00
sa(dp124
Vto
p125
F10.77
sVconfidence
p126
F0.55300000000000005
sVspeaker
p127
I2
sVfrom
p128
F10.66
sVfinal
p129
I00
sa(dp130
Vto
p131
F11.15
sVconfidence
p132
F0.55300000000000005
sVspeaker
p133
I2
sVfrom
p134
F10.77
sVfinal
p135
I00
sa(dp136
Vto
p137
F11.67
sVconfidence
p138
F0.55300000000000005
sVspeaker
p139
I2
sVfrom
p140
F11.15
sVfinal
p141
I00
sa(dp142
Vto
p143
F11.85
sVconfidence
p144
F0.55300000000000005
sVspeaker
p145
I2
sVfrom
p146
F11.67
sVfinal
p147
I00
sa(dp148
Vto
p149
F11.970000000000001
sVconfidence
p150
F0.55300000000000005
sVspeaker
p151
I2
sVfrom
p152
F11.85
sVfinal
p153
I00
sa(dp154
Vto
p155
F12.1
sVconfidence
p156
F0.55300000000000005
sVspeaker
p157
I2
sVfrom
p158
F11.970000000000001
sVfinal
p159
I00
sa(dp160
Vto
p161
F12.92
sVconfidence
p162
F0.55300000000000005
sVspeaker
p163
I2
sVfrom
p164
F12.1
sVfinal
p165
I00
sa(dp166
Vto
p167
F14.42
sVconfidence
p168
F0.63700000000000001
sVspeaker
p169
I0
sVfrom
p170
F13.84
sVfinal
p171
I00
sa(dp172
Vto
p173
F14.59
sVconfidence
p174
F0.63700000000000001
sVspeaker
p175
I0
sVfrom
p176
F14.42
sVfinal
p177
I00
sa(dp178
Vto
p179
F15.24
sVconfidence
p180
F0.63600000000000001
sVspeaker
p181
I0
sVfrom
p182
F14.619999999999999
sVfinal
p183
I00
sa(dp184
Vto
p185
F16.07
sVconfidence
p186
F0.63400000000000001
sVspeaker
p187
I0
sVfrom
p188
F15.609999999999999
sVfinal
p189
I00
sa(dp190
Vto
p191
F16.550000000000001
sVconfidence
p192
F0.63400000000000001
sVspeaker
p193
I0
sVfrom
p194
F16.07
sVfinal
p195
I00
sa(dp196
Vto
p197
F16.699999999999999
sVconfidence
p198
F0.63400000000000001
sVspeaker
p199
I0
sVfrom
p200
F16.550000000000001
sVfinal
p201
I00
sa(dp202
Vto
p203
F16.920000000000002
sVconfidence
p204
F0.63400000000000001
sVspeaker
p205
I0
sVfrom
p206
F16.699999999999999
sVfinal
p207
I00
sa(dp208
Vto
p209
F17.77
sVconfidence
p210
F0.63400000000000001
sVspeaker
p211
I0
sVfrom
p212
F16.920000000000002
sVfinal
p213
I00
sa(dp214
Vto
p215
F18.309999999999999
sVconfidence
p216
F0.63300000000000001
sVspeaker
p217
I0
sVfrom
p218
F18.030000000000001
sVfinal
p219
I00
sa(dp220
Vto
p221
F18.670000000000002
sVconfidence
p222
F0.63300000000000001
sVspeaker
p223
I0
sVfrom
p224
F18.309999999999999
sVfinal
p225
I00
sa(dp226
Vto
p227
F18.859999999999999
sVconfidence
p228
F0.63300000000000001
sVspeaker
p229
I0
sVfrom
p230
F18.670000000000002
sVfinal
p231
I00
sa(dp232
Vto
p233
F19.300000000000001
sVconfidence
p234
F0.63300000000000001
sVspeaker
p235
I0
sVfrom
p236
F18.859999999999999
sVfinal
p237
I00
sa(dp238
Vto
p239
F19.649999999999999
sVconfidence
p240
F0.63300000000000001
sVspeaker
p241
I0
sVfrom
p242
F19.300000000000001
sVfinal
p243
I00
sa(dp244
Vto
p245
F20.09
sVconfidence
p246
F0.63300000000000001
sVspeaker
p247
I0
sVfrom
p248
F19.649999999999999
sVfinal
p249
I00
sa(dp250
Vto
p251
F20.140000000000001
sVconfidence
p252
F0.63300000000000001
sVspeaker
p253
I0
sVfrom
p254
F20.09
sVfinal
p255
I00
sa(dp256
Vto
p257
F20.34
sVconfidence
p258
F0.63300000000000001
sVspeaker
p259
I0
sVfrom
p260
F20.140000000000001
sVfinal
p261
I00
sa(dp262
Vto
p263
F20.43
sVconfidence
p264
F0.63300000000000001
sVspeaker
p265
I0
sVfrom
p266
F20.34
sVfinal
p267
I00
sa(dp268
Vto
p269
F20.899999999999999
sVconfidence
p270
F0.63300000000000001
sVspeaker
p271
I0
sVfrom
p272
F20.43
sVfinal
p273
I00
sa(dp274
Vto
p275
F21.82
sVconfidence
p276
F0.47499999999999998
sVspeaker
p277
I0
sVfrom
p278
F21.43
sVfinal
p279
I00
sa(dp280
Vto
p281
F21.960000000000001
sVconfidence
p282
F0.47499999999999998
sVspeaker
p283
I0
sVfrom
p284
F21.82
sVfinal
p285
I00
sa(dp286
Vto
p287
F22.129999999999999
sVconfidence
p288
F0.47499999999999998
sVspeaker
p289
I0
sVfrom
p290
F21.960000000000001
sVfinal
p291
I00
sa(dp292
Vto
p293
F22.219999999999999
sVconfidence
p294
F0.47499999999999998
sVspeaker
p295
I0
sVfrom
p296
F22.129999999999999
sVfinal
p297
I00
sa(dp298
Vto
p299
F22.559999999999999
sVconfidence
p300
F0.47499999999999998
sVspeaker
p301
I0
sVfrom
p302
F22.219999999999999
sVfinal
p303
I00
sa(dp304
Vto
p305
F23.16
sVconfidence
p306
F0.59399999999999997
sVspeaker
p307
I0
sVfrom
p308
F22.59
sVfinal
p309
I00
sa(dp310
Vto
p311
F23.57
sVconfidence
p312
F0.63400000000000001
sVspeaker
p313
I0
sVfrom
p314
F23.370000000000001
sVfinal
p315
I00
sa(dp316
Vto
p317
F23.77
sVconfidence
p318
F0.63400000000000001
sVspeaker
p319
I0
sVfrom
p320
F23.57
sVfinal
p321
I00
sa(dp322
Vto
p323
F24.18
sVconfidence
p324
F0.63400000000000001
sVspeaker
p325
I0
sVfrom
p326
F23.77
sVfinal
p327
I00
sa(dp328
Vto
p329
F24.399999999999999
sVconfidence
p330
F0.63400000000000001
sVspeaker
p331
I0
sVfrom
p332
F24.18
sVfinal
p333
I00
sa(dp334
Vto
p335
F24.649999999999999
sVconfidence
p336
F0.63400000000000001
sVspeaker
p337
I0
sVfrom
p338
F24.399999999999999
sVfinal
p339
I00
sa(dp340
Vto
p341
F25.09
sVconfidence
p342
F0.63400000000000001
sVspeaker
p343
I0
sVfrom
p344
F24.649999999999999
sVfinal
p345
I00
sa(dp346
Vto
p347
F25.41
sVconfidence
p348
F0.63400000000000001
sVspeaker
p349
I0
sVfrom
p350
F25.09
sVfinal
p351
I00
sa(dp352
Vto
p353
F26.530000000000001
sVconfidence
p354
F0.57299999999999995
sVspeaker
p355
I2
sVfrom
p356
F26.109999999999999
sVfinal
p357
I00
sa(dp358
Vto
p359
F26.739999999999998
sVconfidence
p360
F0.57299999999999995
sVspeaker
p361
I2
sVfrom
p362
F26.530000000000001
sVfinal
p363
I00
sa(dp364
Vto
p365
F27.25
sVconfidence
p366
F0.57299999999999995
sVspeaker
p367
I2
sVfrom
p368
F26.739999999999998
sVfinal
p369
I00
sa(dp370
Vto
p371
F27.98
sVconfidence
p372
F0.52200000000000002
sVspeaker
p373
I2
sVfrom
p374
F27.800000000000001
sVfinal
p375
I00
sa(dp376
Vto
p377
F28.530000000000001
sVconfidence
p378
F0.52200000000000002
sVspeaker
p379
I2
sVfrom
p380
F27.98
sVfinal
p381
I00
sa(dp382
Vto
p383
F29.010000000000002
sVconfidence
p384
F0.61799999999999999
sVspeaker
p385
I2
sVfrom
p386
F28.77
sVfinal
p387
I00
sa(dp388
Vto
p389
F29.32
sVconfidence
p390
F0.61799999999999999
sVspeaker
p391
I2
sVfrom
p392
F29.010000000000002
sVfinal
p393
I00
sa(dp394
Vto
p395
F29.489999999999998
sVconfidence
p396
F0.61799999999999999
sVspeaker
p397
I2
sVfrom
p398
F29.32
sVfinal
p399
I00
sa(dp400
Vto
p401
F29.859999999999999
sVconfidence
p402
F0.61799999999999999
sVspeaker
p403
I2
sVfrom
p404
F29.489999999999998
sVfinal
p405
I00
sa(dp406
Vto
p407
F30.719999999999999
sVconfidence
p408
F0.61799999999999999
sVspeaker
p409
I2
sVfrom
p410
F29.859999999999999
sVfinal
p411
I00
sa(dp412
Vto
p413
F30.890000000000001
sVconfidence
p414
F0.61799999999999999
sVspeaker
p415
I2
sVfrom
p416
F30.719999999999999
sVfinal
p417
I00
sa(dp418
Vto
p419
F31.16
sVconfidence
p420
F0.61799999999999999
sVspeaker
p421
I2
sVfrom
p422
F30.890000000000001
sVfinal
p423
I00
sa(dp424
Vto
p425
F31.309999999999999
sVconfidence
p426
F0.61799999999999999
sVspeaker
p427
I2
sVfrom
p428
F31.16
sVfinal
p429
I00
sa(dp430
Vto
p431
F31.690000000000001
sVconfidence
p432
F0.61799999999999999
sVspeaker
p433
I2
sVfrom
p434
F31.309999999999999
sVfinal
p435
I00
sa(dp436
Vto
p437
F32.549999999999997
sVconfidence
p438
F0.56299999999999994
sVspeaker
p439
I2
sVfrom
p440
F32.310000000000002
sVfinal
p441
I00
sa(dp442
Vto
p443
F32.670000000000002
sVconfidence
p444
F0.56299999999999994
sVspeaker
p445
I2
sVfrom
p446
F32.549999999999997
sVfinal
p447
I00
sa(dp448
Vto
p449
F33.280000000000001
sVconfidence
p450
F0.56299999999999994
sVspeaker
p451
I2
sVfrom
p452
F32.670000000000002
sVfinal
p453
I00
sa(dp454
Vto
p455
F33.57
sVconfidence
p456
F0.56299999999999994
sVspeaker
p457
I2
sVfrom
p458
F33.280000000000001
sVfinal
p459
I00
sa(dp460
Vto
p461
F33.75
sVconfidence
p462
F0.56299999999999994
sVspeaker
p463
I2
sVfrom
p464
F33.57
sVfinal
p465
I00
sa(dp466
Vto
p467
F34.299999999999997
sVconfidence
p468
F0.56299999999999994
sVspeaker
p469
I2
sVfrom
p470
F33.75
sVfinal
p471
I00
sa(dp472
Vto
p473
F35.340000000000003
sVconfidence
p474
F0.58099999999999996
sVspeaker
p475
I0
sVfrom
p476
F34.990000000000002
sVfinal
p477
I00
sa(dp478
Vto
p479
F35.979999999999997
sVconfidence
p480
F0.58099999999999996
sVspeaker
p481
I0
sVfrom
p482
F35.340000000000003
sVfinal
p483
I00
sa(dp484
Vto
p485
F36.340000000000003
sVconfidence
p486
F0.58599999999999997
sVspeaker
p487
I0
sVfrom
p488
F36.170000000000002
sVfinal
p489
I00
sa(dp490
Vto
p491
F36.640000000000001
sVconfidence
p492
F0.58599999999999997
sVspeaker
p493
I0
sVfrom
p494
F36.340000000000003
sVfinal
p495
I00
sa(dp496
Vto
p497
F36.740000000000002
sVconfidence
p498
F0.58599999999999997
sVspeaker
p499
I0
sVfrom
p500
F36.640000000000001
sVfinal
p501
I00
sa(dp502
Vto
p503
F37.030000000000001
sVconfidence
p504
F0.58599999999999997
sVspeaker
p505
I0
sVfrom
p506
F36.740000000000002
sVfinal
p507
I00
sa(dp508
Vto
p509
F37.170000000000002
sVconfidence
p510
F0.58599999999999997
sVspeaker
p511
I0
sVfrom
p512
F37.030000000000001
sVfinal
p513
I00
sa(dp514
Vto
p515
F37.369999999999997
sVconfidence
p516
F0.58599999999999997
sVspeaker
p517
I0
sVfrom
p518
F37.170000000000002
sVfinal
p519
I00
sa(dp520
Vto
p521
F37.719999999999999
sVconfidence
p522
F0.58599999999999997
sVspeaker
p523
I0
sVfrom
p524
F37.369999999999997
sVfinal
p525
I00
sa(dp526
Vto
p527
F38.68
sVconfidence
p528
F0.59199999999999997
sVspeaker
p529
I2
sVfrom
p530
F38.329999999999998
sVfinal
p531
I00
sa(dp532
Vto
p533
F39.170000000000002
sVconfidence
p534
F0.59199999999999997
sVspeaker
p535
I2
sVfrom
p536
F38.68
sVfinal
p537
I00
sa(dp538
Vto
p539
F40.119999999999997
sVconfidence
p540
F0.57699999999999996
sVspeaker
p541
I2
sVfrom
p542
F39.899999999999999
sVfinal
p543
I00
sa(dp544
Vto
p545
F40.469999999999999
sVconfidence
p546
F0.57699999999999996
sVspeaker
p547
I2
sVfrom
p548
F40.119999999999997
sVfinal
p549
I00
sa(dp550
Vto
p551
F40.869999999999997
sVconfidence
p552
F0.57699999999999996
sVspeaker
p553
I2
sVfrom
p554
F40.469999999999999
sVfinal
p555
I00
sa(dp556
Vto
p557
F41.109999999999999
sVconfidence
p558
F0.57699999999999996
sVspeaker
p559
I2
sVfrom
p560
F40.869999999999997
sVfinal
p561
I00
sa(dp562
Vto
p563
F41.229999999999997
sVconfidence
p564
F0.57699999999999996
sVspeaker
p565
I2
sVfrom
p566
F41.109999999999999
sVfinal
p567
I00
sa(dp568
Vto
p569
F41.490000000000002
sVconfidence
p570
F0.57699999999999996
sVspeaker
p571
I2
sVfrom
p572
F41.229999999999997
sVfinal
p573
I00
sa(dp574
Vto
p575
F41.729999999999997
sVconfidence
p576
F0.57699999999999996
sVspeaker
p577
I2
sVfrom
p578
F41.520000000000003
sVfinal
p579
I00
sa(dp580
Vto
p581
F42.270000000000003
sVconfidence
p582
F0.57699999999999996
sVspeaker
p583
I2
sVfrom
p584
F41.729999999999997
sVfinal
p585
I00
sa(dp586
Vto
p587
F43.030000000000001
sVconfidence
p588
F0.55100000000000005
sVspeaker
p589
I2
sVfrom
p590
F42.850000000000001
sVfinal
p591
I00
sa(dp592
Vto
p593
F43.289999999999999
sVconfidence
p594
F0.55100000000000005
sVspeaker
p595
I2
sVfrom
p596
F43.030000000000001
sVfinal
p597
I00
sa(dp598
Vto
p599
F43.5
sVconfidence
p600
F0.55100000000000005
sVspeaker
p601
I2
sVfrom
p602
F43.289999999999999
sVfinal
p603
I00
sa(dp604
Vto
p605
F43.600000000000001
sVconfidence
p606
F0.55100000000000005
sVspeaker
p607
I2
sVfrom
p608
F43.5
sVfinal
p609
I00
sa(dp610
Vto
p611
F43.770000000000003
sVconfidence
p612
F0.55100000000000005
sVspeaker
p613
I2
sVfrom
p614
F43.600000000000001
sVfinal
p615
I00
sa(dp616
Vto
p617
F43.969999999999999
sVconfidence
p618
F0.55100000000000005
sVspeaker
p619
I2
sVfrom
p620
F43.770000000000003
sVfinal
p621
I00
sa(dp622
Vto
p623
F44.119999999999997
sVconfidence
p624
F0.55100000000000005
sVspeaker
p625
I2
sVfrom
p626
F43.969999999999999
sVfinal
p627
I00
sa(dp628
Vto
p629
F44.289999999999999
sVconfidence
p630
F0.55100000000000005
sVspeaker
p631
I2
sVfrom
p632
F44.119999999999997
sVfinal
p633
I00
sa(dp634
Vto
p635
F44.729999999999997
sVconfidence
p636
F0.55100000000000005
sVspeaker
p637
I2
sVfrom
p638
F44.289999999999999
sVfinal
p639
I00
sa(dp640
Vto
p641
F44.920000000000002
sVconfidence
p642
F0.55100000000000005
sVspeaker
p643
I2
sVfrom
p644
F44.729999999999997
sVfinal
p645
I00
sa(dp646
Vto
p647
F45.630000000000003
sVconfidence
p648
F0.59599999999999997
sVspeaker
p649
I2
sVfrom
p650
F44.950000000000003
sVfinal
p651
I00
sa(dp652
Vto
p653
F46.490000000000002
sVconfidence
p654
F0.35399999999999998
sVspeaker
p655
I1
sVfrom
p656
F46.200000000000003
sVfinal
p657
I00
sa(dp658
Vto
p659
F46.909999999999997
sVconfidence
p660
F0.35399999999999998
sVspeaker
p661
I1
sVfrom
p662
F46.490000000000002
sVfinal
p663
I00
sa(dp664
Vto
p665
F48.409999999999997
sVconfidence
p666
F0.44
sVspeaker
p667
I2
sVfrom
p668
F47.829999999999998
sVfinal
p669
I00
sa(dp670
Vto
p671
F49.310000000000002
sVconfidence
p672
F0.57999999999999996
sVspeaker
p673
I2
sVfrom
p674
F48.880000000000003
sVfinal
p675
I00
sa(dp676
Vto
p677
F49.649999999999999
sVconfidence
p678
F0.57999999999999996
sVspeaker
p679
I2
sVfrom
p680
F49.310000000000002
sVfinal
p681
I00
sa(dp682
Vto
p683
F50.5
sVconfidence
p684
F0.61099999999999999
sVspeaker
p685
I2
sVfrom
p686
F50.200000000000003
sVfinal
p687
I00
sa(dp688
Vto
p689
F50.75
sVconfidence
p690
F0.61099999999999999
sVspeaker
p691
I2
sVfrom
p692
F50.5
sVfinal
p693
I00
sa(dp694
Vto
p695
F50.829999999999998
sVconfidence
p696
F0.61099999999999999
sVspeaker
p697
I2
sVfrom
p698
F50.75
sVfinal
p699
I00
sa(dp700
Vto
p701
F51.030000000000001
sVconfidence
p702
F0.61099999999999999
sVspeaker
p703
I2
sVfrom
p704
F50.829999999999998
sVfinal
p705
I00
sa(dp706
Vto
p707
F51.140000000000001
sVconfidence
p708
F0.61099999999999999
sVspeaker
p709
I2
sVfrom
p710
F51.030000000000001
sVfinal
p711
I00
sa(dp712
Vto
p713
F51.509999999999998
sVconfidence
p714
F0.61099999999999999
sVspeaker
p715
I2
sVfrom
p716
F51.140000000000001
sVfinal
p717
I00
sa(dp718
Vto
p719
F51.689999999999998
sVconfidence
p720
F0.61099999999999999
sVspeaker
p721
I2
sVfrom
p722
F51.509999999999998
sVfinal
p723
I00
sa(dp724
Vto
p725
F51.729999999999997
sVconfidence
p726
F0.61099999999999999
sVspeaker
p727
I2
sVfrom
p728
F51.689999999999998
sVfinal
p729
I00
sa(dp730
Vto
p731
F51.93
sVconfidence
p732
F0.61099999999999999
sVspeaker
p733
I2
sVfrom
p734
F51.729999999999997
sVfinal
p735
I00
sa(dp736
Vto
p737
F52.840000000000003
sVconfidence
p738
F0.61099999999999999
sVspeaker
p739
I2
sVfrom
p740
F51.93
sVfinal
p741
I00
sa(dp742
Vto
p743
F53.520000000000003
sVconfidence
p744
F0.56999999999999995
sVspeaker
p745
I2
sVfrom
p746
F53.229999999999997
sVfinal
p747
I00
sa(dp748
Vto
p749
F53.590000000000003
sVconfidence
p750
F0.56999999999999995
sVspeaker
p751
I2
sVfrom
p752
F53.520000000000003
sVfinal
p753
I00
sa(dp754
Vto
p755
F54.079999999999998
sVconfidence
p756
F0.56999999999999995
sVspeaker
p757
I2
sVfrom
p758
F53.590000000000003
sVfinal
p759
I00
sa(dp760
Vto
p761
F54.759999999999998
sVconfidence
p762
F0.59399999999999997
sVspeaker
p763
I2
sVfrom
p764
F54.670000000000002
sVfinal
p765
I00
sa(dp766
Vto
p767
F55.240000000000002
sVconfidence
p768
F0.59399999999999997
sVspeaker
p769
I2
sVfrom
p770
F54.759999999999998
sVfinal
p771
I00
sa(dp772
Vto
p773
F55.509999999999998
sVconfidence
p774
F0.59399999999999997
sVspeaker
p775
I2
sVfrom
p776
F55.240000000000002
sVfinal
p777
I00
sa(dp778
Vto
p779
F55.609999999999999
sVconfidence
p780
F0.59399999999999997
sVspeaker
p781
I2
sVfrom
p782
F55.509999999999998
sVfinal
p783
I00
sa(dp784
Vto
p785
F55.950000000000003
sVconfidence
p786
F0.59399999999999997
sVspeaker
p787
I2
sVfrom
p788
F55.609999999999999
sVfinal
p789
I00
sa(dp790
Vto
p791
F56.130000000000003
sVconfidence
p792
F0.59399999999999997
sVspeaker
p793
I2
sVfrom
p794
F55.950000000000003
sVfinal
p795
I00
sa(dp796
Vto
p797
F56.43
sVconfidence
p798
F0.59399999999999997
sVspeaker
p799
I2
sVfrom
p800
F56.130000000000003
sVfinal
p801
I00
sa(dp802
Vto
p803
F57.009999999999998
sVconfidence
p804
F0.59399999999999997
sVspeaker
p805
I2
sVfrom
p806
F56.43
sVfinal
p807
I00
sa(dp808
Vto
p809
F57.82
sVconfidence
p810
F0.56200000000000006
sVspeaker
p811
I2
sVfrom
p812
F57.670000000000002
sVfinal
p813
I00
sa(dp814
Vto
p815
F57.880000000000003
sVconfidence
p816
F0.56200000000000006
sVspeaker
p817
I2
sVfrom
p818
F57.82
sVfinal
p819
I00
sa(dp820
Vto
p821
F58.060000000000002
sVconfidence
p822
F0.56200000000000006
sVspeaker
p823
I2
sVfrom
p824
F57.880000000000003
sVfinal
p825
I00
sa(dp826
Vto
p827
F58.219999999999999
sVconfidence
p828
F0.56200000000000006
sVspeaker
p829
I2
sVfrom
p830
F58.060000000000002
sVfinal
p831
I00
sa(dp832
Vto
p833
F58.719999999999999
sVconfidence
p834
F0.56200000000000006
sVspeaker
p835
I2
sVfrom
p836
F58.219999999999999
sVfinal
p837
I00
sa(dp838
Vto
p839
F59
sVconfidence
p840
F0.56200000000000006
sVspeaker
p841
I2
sVfrom
p842
F58.719999999999999
sVfinal
p843
I00
sa(dp844
Vto
p845
F59.109999999999999
sVconfidence
p846
F0.56200000000000006
sVspeaker
p847
I2
sVfrom
p848
F59
sVfinal
p849
I00
sa(dp850
Vto
p851
F59.350000000000001
sVconfidence
p852
F0.56200000000000006
sVspeaker
p853
I2
sVfrom
p854
F59.109999999999999
sVfinal
p855
I00
sa(dp856
Vto
p857
F59.479999999999997
sVconfidence
p858
F0.56200000000000006
sVspeaker
p859
I2
sVfrom
p860
F59.350000000000001
sVfinal
p861
I00
sa(dp862
Vto
p863
F59.789999999999999
sVconfidence
p864
F0.56200000000000006
sVspeaker
p865
I2
sVfrom
p866
F59.479999999999997
sVfinal
p867
I00
sa(dp868
Vto
p869
F60.399999999999999
sVconfidence
p870
F0.56200000000000006
sVspeaker
p871
I2
sVfrom
p872
F59.789999999999999
sVfinal
p873
I00
sa(dp874
Vto
p875
F60.700000000000003
sVconfidence
p876
F0.56200000000000006
sVspeaker
p877
I2
sVfrom
p878
F60.399999999999999
sVfinal
p879
I00
sa(dp880
Vto
p881
F61.049999999999997
sVconfidence
p882
F0.56200000000000006
sVspeaker
p883
I2
sVfrom
p884
F60.700000000000003
sVfinal
p885
I00
sa(dp886
Vto
p887
F62.640000000000001
sVconfidence
p888
F0.65100000000000002
sVspeaker
p889
I0
sVfrom
p890
F62.049999999999997
sVfinal
p891
I00
sa(dp892
Vto
p893
F63.259999999999998
sVconfidence
p894
F0.65100000000000002
sVspeaker
p895
I0
sVfrom
p896
F62.640000000000001
sVfinal
p897
I00
sa(dp898
Vto
p899
F63.619999999999997
sVconfidence
p900
F0.64800000000000002
sVspeaker
p901
I0
sVfrom
p902
F63.469999999999999
sVfinal
p903
I00
sa(dp904
Vto
p905
F63.880000000000003
sVconfidence
p906
F0.64800000000000002
sVspeaker
p907
I0
sVfrom
p908
F63.619999999999997
sVfinal
p909
I00
sa(dp910
Vto
p911
F64.140000000000001
sVconfidence
p912
F0.64800000000000002
sVspeaker
p913
I0
sVfrom
p914
F63.880000000000003
sVfinal
p915
I00
sa(dp916
Vto
p917
F64.25
sVconfidence
p918
F0.64800000000000002
sVspeaker
p919
I0
sVfrom
p920
F64.140000000000001
sVfinal
p921
I00
sa(dp922
Vto
p923
F64.450000000000003
sVconfidence
p924
F0.64800000000000002
sVspeaker
p925
I0
sVfrom
p926
F64.25
sVfinal
p927
I00
sa(dp928
Vto
p929
F65.180000000000007
sVconfidence
p930
F0.64800000000000002
sVspeaker
p931
I0
sVfrom
p932
F64.450000000000003
sVfinal
p933
I00
sa(dp934
Vto
p935
F65.680000000000007
sVconfidence
p936
F0.57199999999999995
sVspeaker
p937
I0
sVfrom
p938
F65.489999999999995
sVfinal
p939
I00
sa(dp940
Vto
p941
F66.129999999999995
sVconfidence
p942
F0.57199999999999995
sVspeaker
p943
I0
sVfrom
p944
F65.680000000000007
sVfinal
p945
I00
sa(dp946
Vto
p947
F66.540000000000006
sVconfidence
p948
F0.57199999999999995
sVspeaker
p949
I0
sVfrom
p950
F66.129999999999995
sVfinal
p951
I00
sa(dp952
Vto
p953
F66.849999999999994
sVconfidence
p954
F0.57199999999999995
sVspeaker
p955
I0
sVfrom
p956
F66.540000000000006
sVfinal
p957
I00
sa(dp958
Vto
p959
F67.299999999999997
sVconfidence
p960
F0.57199999999999995
sVspeaker
p961
I0
sVfrom
p962
F66.849999999999994
sVfinal
p963
I00
sa(dp964
Vto
p965
F67.400000000000006
sVconfidence
p966
F0.57199999999999995
sVspeaker
p967
I0
sVfrom
p968
F67.299999999999997
sVfinal
p969
I00
sa(dp970
Vto
p971
F67.709999999999994
sVconfidence
p972
F0.57199999999999995
sVspeaker
p973
I0
sVfrom
p974
F67.400000000000006
sVfinal
p975
I00
sa(dp976
Vto
p977
F68.010000000000005
sVconfidence
p978
F0.57199999999999995
sVspeaker
p979
I0
sVfrom
p980
F67.709999999999994
sVfinal
p981
I00
sa(dp982
Vto
p983
F69.040000000000006
sVconfidence
p984
F0.59099999999999997
sVspeaker
p985
I2
sVfrom
p986
F68.769999999999996
sVfinal
p987
I00
sa(dp988
Vto
p989
F69.469999999999999
sVconfidence
p990
F0.59099999999999997
sVspeaker
p991
I2
sVfrom
p992
F69.040000000000006
sVfinal
p993
I00
sa(dp994
Vto
p995
F70.349999999999994
sVconfidence
p996
F0.65500000000000003
sVspeaker
p997
I0
sVfrom
p998
F70.090000000000003
sVfinal
p999
I00
sa(dp1000
Vto
p1001
F70.469999999999999
sVconfidence
p1002
F0.65500000000000003
sVspeaker
p1003
I0
sVfrom
p1004
F70.349999999999994
sVfinal
p1005
I00
sa(dp1006
Vto
p1007
F70.620000000000005
sVconfidence
p1008
F0.65500000000000003
sVspeaker
p1009
I0
sVfrom
p1010
F70.469999999999999
sVfinal
p1011
I00
sa(dp1012
Vto
p1013
F70.959999999999994
sVconfidence
p1014
F0.65500000000000003
sVspeaker
p1015
I0
sVfrom
p1016
F70.620000000000005
sVfinal
p1017
I00
sa(dp1018
Vto
p1019
F71
sVconfidence
p1020
F0.65500000000000003
sVspeaker
p1021
I0
sVfrom
p1022
F70.959999999999994
sVfinal
p1023
I00
sa(dp1024
Vto
p1025
F71.310000000000002
sVconfidence
p1026
F0.65500000000000003
sVspeaker
p1027
I0
sVfrom
p1028
F71
sVfinal
p1029
I00
sa(dp1030
Vto
p1031
F72.090000000000003
sVconfidence
p1032
F0.65500000000000003
sVspeaker
p1033
I0
sVfrom
p1034
F71.310000000000002
sVfinal
p1035
I00
sa(dp1036
Vto
p1037
F72.430000000000007
sVconfidence
p1038
F0.64300000000000002
sVspeaker
p1039
I0
sVfrom
p1040
F72.120000000000005
sVfinal
p1041
I00
sa(dp1042
Vto
p1043
F72.709999999999994
sVconfidence
p1044
F0.64300000000000002
sVspeaker
p1045
I0
sVfrom
p1046
F72.430000000000007
sVfinal
p1047
I00
sa(dp1048
Vto
p1049
F72.829999999999998
sVconfidence
p1050
F0.64300000000000002
sVspeaker
p1051
I0
sVfrom
p1052
F72.709999999999994
sVfinal
p1053
I00
sa(dp1054
Vto
p1055
F72.989999999999995
sVconfidence
p1056
F0.64300000000000002
sVspeaker
p1057
I0
sVfrom
p1058
F72.829999999999998
sVfinal
p1059
I00
sa(dp1060
Vto
p1061
F73.340000000000003
sVconfidence
p1062
F0.64300000000000002
sVspeaker
p1063
I0
sVfrom
p1064
F72.989999999999995
sVfinal
p1065
I00
sa(dp1066
Vto
p1067
F73.469999999999999
sVconfidence
p1068
F0.64300000000000002
sVspeaker
p1069
I0
sVfrom
p1070
F73.340000000000003
sVfinal
p1071
I00
sa(dp1072
Vto
p1073
F73.569999999999993
sVconfidence
p1074
F0.64300000000000002
sVspeaker
p1075
I0
sVfrom
p1076
F73.469999999999999
sVfinal
p1077
I00
sa(dp1078
Vto
p1079
F73.879999999999995
sVconfidence
p1080
F0.64300000000000002
sVspeaker
p1081
I0
sVfrom
p1082
F73.569999999999993
sVfinal
p1083
I00
sa(dp1084
Vto
p1085
F74.120000000000005
sVconfidence
p1086
F0.64300000000000002
sVspeaker
p1087
I0
sVfrom
p1088
F73.879999999999995
sVfinal
p1089
I00
sa(dp1090
Vto
p1091
F74.260000000000005
sVconfidence
p1092
F0.64300000000000002
sVspeaker
p1093
I0
sVfrom
p1094
F74.120000000000005
sVfinal
p1095
I00
sa(dp1096
Vto
p1097
F74.549999999999997
sVconfidence
p1098
F0.64300000000000002
sVspeaker
p1099
I0
sVfrom
p1100
F74.260000000000005
sVfinal
p1101
I00
sa(dp1102
Vto
p1103
F75.459999999999994
sVconfidence
p1104
F0.64200000000000002
sVspeaker
p1105
I0
sVfrom
p1106
F75.25
sVfinal
p1107
I00
sa(dp1108
Vto
p1109
F75.599999999999994
sVconfidence
p1110
F0.64200000000000002
sVspeaker
p1111
I0
sVfrom
p1112
F75.459999999999994
sVfinal
p1113
I00
sa(dp1114
Vto
p1115
F75.980000000000004
sVconfidence
p1116
F0.64200000000000002
sVspeaker
p1117
I0
sVfrom
p1118
F75.599999999999994
sVfinal
p1119
I00
sa(dp1120
Vto
p1121
F76.340000000000003
sVconfidence
p1122
F0.64200000000000002
sVspeaker
p1123
I0
sVfrom
p1124
F75.980000000000004
sVfinal
p1125
I00
sa(dp1126
Vto
p1127
F76.489999999999995
sVconfidence
p1128
F0.64200000000000002
sVspeaker
p1129
I0
sVfrom
p1130
F76.340000000000003
sVfinal
p1131
I00
sa(dp1132
Vto
p1133
F76.569999999999993
sVconfidence
p1134
F0.64200000000000002
sVspeaker
p1135
I0
sVfrom
p1136
F76.489999999999995
sVfinal
p1137
I00
sa(dp1138
Vto
p1139
F77.319999999999993
sVconfidence
p1140
F0.64200000000000002
sVspeaker
p1141
I0
sVfrom
p1142
F76.569999999999993
sVfinal
p1143
I00
sa(dp1144
Vto
p1145
F77.75
sVconfidence
p1146
F0.64900000000000002
sVspeaker
p1147
I0
sVfrom
p1148
F77.560000000000002
sVfinal
p1149
I00
sa(dp1150
Vto
p1151
F78
sVconfidence
p1152
F0.64900000000000002
sVspeaker
p1153
I0
sVfrom
p1154
F77.75
sVfinal
p1155
I00
sa(dp1156
Vto
p1157
F78.180000000000007
sVconfidence
p1158
F0.64900000000000002
sVspeaker
p1159
I0
sVfrom
p1160
F78
sVfinal
p1161
I00
sa(dp1162
Vto
p1163
F78.790000000000006
sVconfidence
p1164
F0.64900000000000002
sVspeaker
p1165
I0
sVfrom
p1166
F78.180000000000007
sVfinal
p1167
I00
sa(dp1168
Vto
p1169
F78.930000000000007
sVconfidence
p1170
F0.64900000000000002
sVspeaker
p1171
I0
sVfrom
p1172
F78.790000000000006
sVfinal
p1173
I00
sa(dp1174
Vto
p1175
F79.180000000000007
sVconfidence
p1176
F0.64900000000000002
sVspeaker
p1177
I0
sVfrom
p1178
F78.930000000000007
sVfinal
p1179
I00
sa(dp1180
Vto
p1181
F79.280000000000001
sVconfidence
p1182
F0.64900000000000002
sVspeaker
p1183
I0
sVfrom
p1184
F79.180000000000007
sVfinal
p1185
I00
sa(dp1186
Vto
p1187
F80
sVconfidence
p1188
F0.64900000000000002
sVspeaker
p1189
I0
sVfrom
p1190
F79.280000000000001
sVfinal
p1191
I00
sa(dp1192
Vto
p1193
F80.269999999999996
sVconfidence
p1194
F0.65300000000000002
sVspeaker
p1195
I0
sVfrom
p1196
F80.060000000000002
sVfinal
p1197
I00
sa(dp1198
Vto
p1199
F80.459999999999994
sVconfidence
p1200
F0.65300000000000002
sVspeaker
p1201
I0
sVfrom
p1202
F80.269999999999996
sVfinal
p1203
I00
sa(dp1204
Vto
p1205
F80.769999999999996
sVconfidence
p1206
F0.65300000000000002
sVspeaker
p1207
I0
sVfrom
p1208
F80.459999999999994
sVfinal
p1209
I00
sa(dp1210
Vto
p1211
F80.989999999999995
sVconfidence
p1212
F0.65300000000000002
sVspeaker
p1213
I0
sVfrom
p1214
F80.769999999999996
sVfinal
p1215
I00
sa(dp1216
Vto
p1217
F81.579999999999998
sVconfidence
p1218
F0.65300000000000002
sVspeaker
p1219
I0
sVfrom
p1220
F80.989999999999995
sVfinal
p1221
I00
sa(dp1222
Vto
p1223
F82.299999999999997
sVconfidence
p1224
F0.621
sVspeaker
p1225
I0
sVfrom
p1226
F82.069999999999993
sVfinal
p1227
I00
sa(dp1228
Vto
p1229
F82.75
sVconfidence
p1230
F0.621
sVspeaker
p1231
I0
sVfrom
p1232
F82.299999999999997
sVfinal
p1233
I00
sa(dp1234
Vto
p1235
F82.969999999999999
sVconfidence
p1236
F0.621
sVspeaker
p1237
I0
sVfrom
p1238
F82.75
sVfinal
p1239
I00
sa(dp1240
Vto
p1241
F83.409999999999997
sVconfidence
p1242
F0.621
sVspeaker
p1243
I0
sVfrom
p1244
F82.969999999999999
sVfinal
p1245
I00
sa(dp1246
Vto
p1247
F83.719999999999999
sVconfidence
p1248
F0.621
sVspeaker
p1249
I0
sVfrom
p1250
F83.409999999999997
sVfinal
p1251
I00
sa(dp1252
Vto
p1253
F84.010000000000005
sVconfidence
p1254
F0.621
sVspeaker
p1255
I0
sVfrom
p1256
F83.719999999999999
sVfinal
p1257
I00
sa(dp1258
Vto
p1259
F84.209999999999994
sVconfidence
p1260
F0.621
sVspeaker
p1261
I0
sVfrom
p1262
F84.010000000000005
sVfinal
p1263
I00
sa(dp1264
Vto
p1265
F84.599999999999994
sVconfidence
p1266
F0.621
sVspeaker
p1267
I0
sVfrom
p1268
F84.209999999999994
sVfinal
p1269
I00
sa(dp1270
Vto
p1271
F85.549999999999997
sVconfidence
p1272
F0.56299999999999994
sVspeaker
p1273
I0
sVfrom
p1274
F85.329999999999998
sVfinal
p1275
I00
sa(dp1276
Vto
p1277
F86.159999999999997
sVconfidence
p1278
F0.56299999999999994
sVspeaker
p1279
I0
sVfrom
p1280
F85.549999999999997
sVfinal
p1281
I00
sa(dp1282
Vto
p1283
F86.680000000000007
sVconfidence
p1284
F0.63300000000000001
sVspeaker
p1285
I0
sVfrom
p1286
F86.189999999999998
sVfinal
p1287
I00
sa(dp1288
Vto
p1289
F86.829999999999998
sVconfidence
p1290
F0.63300000000000001
sVspeaker
p1291
I0
sVfrom
p1292
F86.680000000000007
sVfinal
p1293
I00
sa(dp1294
Vto
p1295
F87.019999999999996
sVconfidence
p1296
F0.63300000000000001
sVspeaker
p1297
I0
sVfrom
p1298
F86.829999999999998
sVfinal
p1299
I00
sa(dp1300
Vto
p1301
F87.340000000000003
sVconfidence
p1302
F0.63300000000000001
sVspeaker
p1303
I0
sVfrom
p1304
F87.019999999999996
sVfinal
p1305
I00
sa(dp1306
Vto
p1307
F87.459999999999994
sVconfidence
p1308
F0.63300000000000001
sVspeaker
p1309
I0
sVfrom
p1310
F87.340000000000003
sVfinal
p1311
I00
sa(dp1312
Vto
p1313
F87.939999999999998
sVconfidence
p1314
F0.63300000000000001
sVspeaker
p1315
I0
sVfrom
p1316
F87.459999999999994
sVfinal
p1317
I00
sa(dp1318
Vto
p1319
F88.359999999999999
sVconfidence
p1320
F0.63300000000000001
sVspeaker
p1321
I0
sVfrom
p1322
F88.109999999999999
sVfinal
p1323
I00
sa(dp1324
Vto
p1325
F88.489999999999995
sVconfidence
p1326
F0.63300000000000001
sVspeaker
p1327
I0
sVfrom
p1328
F88.359999999999999
sVfinal
p1329
I00
sa(dp1330
Vto
p1331
F88.790000000000006
sVconfidence
p1332
F0.63300000000000001
sVspeaker
p1333
I0
sVfrom
p1334
F88.489999999999995
sVfinal
p1335
I00
sa(dp1336
Vto
p1337
F88.819999999999993
sVconfidence
p1338
F0.63300000000000001
sVspeaker
p1339
I0
sVfrom
p1340
F88.790000000000006
sVfinal
p1341
I00
sa(dp1342
Vto
p1343
F89.269999999999996
sVconfidence
p1344
F0.63300000000000001
sVspeaker
p1345
I0
sVfrom
p1346
F88.819999999999993
sVfinal
p1347
I00
sa(dp1348
Vto
p1349
F90.269999999999996
sVconfidence
p1350
F0.42599999999999999
sVspeaker
p1351
I1
sVfrom
p1352
F90.040000000000006
sVfinal
p1353
I00
sa(dp1354
Vto
p1355
F90.799999999999997
sVconfidence
p1356
F0.42599999999999999
sVspeaker
p1357
I1
sVfrom
p1358
F90.269999999999996
sVfinal
p1359
I00
sa(dp1360
Vto
p1361
F91.189999999999998
sVconfidence
p1362
F0.42599999999999999
sVspeaker
p1363
I1
sVfrom
p1364
F90.799999999999997
sVfinal
p1365
I00
sa(dp1366
Vto
p1367
F91.939999999999998
sVconfidence
p1368
F0.42899999999999999
sVspeaker
p1369
I1
sVfrom
p1370
F91.689999999999998
sVfinal
p1371
I00
sa(dp1372
Vto
p1373
F92.650000000000006
sVconfidence
p1374
F0.42899999999999999
sVspeaker
p1375
I1
sVfrom
p1376
F91.939999999999998
sVfinal
p1377
I00
sa(dp1378
Vto
p1379
F92.870000000000005
sVconfidence
p1380
F0.42899999999999999
sVspeaker
p1381
I1
sVfrom
p1382
F92.650000000000006
sVfinal
p1383
I00
sa(dp1384
Vto
p1385
F93.049999999999997
sVconfidence
p1386
F0.42899999999999999
sVspeaker
p1387
I1
sVfrom
p1388
F92.870000000000005
sVfinal
p1389
I00
sa(dp1390
Vto
p1391
F93.569999999999993
sVconfidence
p1392
F0.42899999999999999
sVspeaker
p1393
I1
sVfrom
p1394
F93.049999999999997
sVfinal
p1395
I00
sa(dp1396
Vto
p1397
F93.790000000000006
sVconfidence
p1398
F0.42899999999999999
sVspeaker
p1399
I1
sVfrom
p1400
F93.569999999999993
sVfinal
p1401
I00
sa(dp1402
Vto
p1403
F94
sVconfidence
p1404
F0.42899999999999999
sVspeaker
p1405
I1
sVfrom
p1406
F93.790000000000006
sVfinal
p1407
I00
sa(dp1408
Vto
p1409
F94.209999999999994
sVconfidence
p1410
F0.42899999999999999
sVspeaker
p1411
I1
sVfrom
p1412
F94
sVfinal
p1413
I00
sa(dp1414
Vto
p1415
F94.650000000000006
sVconfidence
p1416
F0.42899999999999999
sVspeaker
p1417
I1
sVfrom
p1418
F94.209999999999994
sVfinal
p1419
I00
sa(dp1420
Vto
p1421
F95.579999999999998
sVconfidence
p1422
F0.41699999999999998
sVspeaker
p1423
I1
sVfrom
p1424
F95.200000000000003
sVfinal
p1425
I00
sa(dp1426
Vto
p1427
F95.790000000000006
sVconfidence
p1428
F0.42999999999999999
sVspeaker
p1429
I1
sVfrom
p1430
F95.609999999999999
sVfinal
p1431
I00
sa(dp1432
Vto
p1433
F96.069999999999993
sVconfidence
p1434
F0.42999999999999999
sVspeaker
p1435
I1
sVfrom
p1436
F95.790000000000006
sVfinal
p1437
I00
sa(dp1438
Vto
p1439
F96.239999999999995
sVconfidence
p1440
F0.42999999999999999
sVspeaker
p1441
I1
sVfrom
p1442
F96.069999999999993
sVfinal
p1443
I00
sa(dp1444
Vto
p1445
F96.390000000000001
sVconfidence
p1446
F0.42999999999999999
sVspeaker
p1447
I1
sVfrom
p1448
F96.239999999999995
sVfinal
p1449
I00
sa(dp1450
Vto
p1451
F96.969999999999999
sVconfidence
p1452
F0.42999999999999999
sVspeaker
p1453
I1
sVfrom
p1454
F96.390000000000001
sVfinal
p1455
I00
sa(dp1456
Vto
p1457
F97.109999999999999
sVconfidence
p1458
F0.42999999999999999
sVspeaker
p1459
I1
sVfrom
p1460
F96.969999999999999
sVfinal
p1461
I00
sa(dp1462
Vto
p1463
F97.310000000000002
sVconfidence
p1464
F0.42999999999999999
sVspeaker
p1465
I1
sVfrom
p1466
F97.109999999999999
sVfinal
p1467
I00
sa(dp1468
Vto
p1469
F97.430000000000007
sVconfidence
p1470
F0.42999999999999999
sVspeaker
p1471
I1
sVfrom
p1472
F97.310000000000002
sVfinal
p1473
I00
sa(dp1474
Vto
p1475
F97.700000000000003
sVconfidence
p1476
F0.42999999999999999
sVspeaker
p1477
I1
sVfrom
p1478
F97.430000000000007
sVfinal
p1479
I00
sa(dp1480
Vto
p1481
F97.900000000000006
sVconfidence
p1482
F0.42999999999999999
sVspeaker
p1483
I1
sVfrom
p1484
F97.700000000000003
sVfinal
p1485
I00
sa(dp1486
Vto
p1487
F98.269999999999996
sVconfidence
p1488
F0.42999999999999999
sVspeaker
p1489
I1
sVfrom
p1490
F97.900000000000006
sVfinal
p1491
I00
sa(dp1492
Vto
p1493
F98.439999999999998
sVconfidence
p1494
F0.42999999999999999
sVspeaker
p1495
I1
sVfrom
p1496
F98.269999999999996
sVfinal
p1497
I00
sa(dp1498
Vto
p1499
F98.790000000000006
sVconfidence
p1500
F0.42999999999999999
sVspeaker
p1501
I1
sVfrom
p1502
F98.439999999999998
sVfinal
p1503
I00
sa(dp1504
Vto
p1505
F99.239999999999995
sVconfidence
p1506
F0.42999999999999999
sVspeaker
p1507
I1
sVfrom
p1508
F98.790000000000006
sVfinal
p1509
I00
sa(dp1510
Vto
p1511
F99.75
sVconfidence
p1512
F0.42999999999999999
sVspeaker
p1513
I1
sVfrom
p1514
F99.5
sVfinal
p1515
I00
sa(dp1516
Vto
p1517
F99.909999999999997
sVconfidence
p1518
F0.42999999999999999
sVspeaker
p1519
I1
sVfrom
p1520
F99.75
sVfinal
p1521
I00
sa(dp1522
Vto
p1523
F100.29000000000001
sVconfidence
p1524
F0.42999999999999999
sVspeaker
p1525
I1
sVfrom
p1526
F99.909999999999997
sVfinal
p1527
I00
sa(dp1528
Vto
p1529
F100.77
sVconfidence
p1530
F0.42999999999999999
sVspeaker
p1531
I1
sVfrom
p1532
F100.29000000000001
sVfinal
p1533
I00
sa(dp1534
Vto
p1535
F100.87
sVconfidence
p1536
F0.42599999999999999
sVspeaker
p1537
I1
sVfrom
p1538
F100.8
sVfinal
p1539
I00
sa(dp1540
Vto
p1541
F101.08
sVconfidence
p1542
F0.42599999999999999
sVspeaker
p1543
I1
sVfrom
p1544
F100.87
sVfinal
p1545
I00
sa(dp1546
Vto
p1547
F101.40000000000001
sVconfidence
p1548
F0.42599999999999999
sVspeaker
p1549
I1
sVfrom
p1550
F101.08
sVfinal
p1551
I00
sa(dp1552
Vto
p1553
F101.59999999999999
sVconfidence
p1554
F0.42599999999999999
sVspeaker
p1555
I1
sVfrom
p1556
F101.40000000000001
sVfinal
p1557
I00
sa(dp1558
Vto
p1559
F101.86
sVconfidence
p1560
F0.42599999999999999
sVspeaker
p1561
I1
sVfrom
p1562
F101.59999999999999
sVfinal
p1563
I00
sa(dp1564
Vto
p1565
F102.04000000000001
sVconfidence
p1566
F0.42599999999999999
sVspeaker
p1567
I1
sVfrom
p1568
F101.86
sVfinal
p1569
I00
sa(dp1570
Vto
p1571
F102.17
sVconfidence
p1572
F0.42599999999999999
sVspeaker
p1573
I1
sVfrom
p1574
F102.04000000000001
sVfinal
p1575
I00
sa(dp1576
Vto
p1577
F102.7
sVconfidence
p1578
F0.42599999999999999
sVspeaker
p1579
I1
sVfrom
p1580
F102.17
sVfinal
p1581
I00
sa(dp1582
Vto
p1583
F104.16
sVconfidence
p1584
F0.48899999999999999
sVspeaker
p1585
I2
sVfrom
p1586
F103.90000000000001
sVfinal
p1587
I00
sa(dp1588
Vto
p1589
F104.40000000000001
sVconfidence
p1590
F0.48899999999999999
sVspeaker
p1591
I2
sVfrom
p1592
F104.16
sVfinal
p1593
I00
sa(dp1594
Vto
p1595
F104.55
sVconfidence
p1596
F0.48899999999999999
sVspeaker
p1597
I2
sVfrom
p1598
F104.40000000000001
sVfinal
p1599
I00
sa(dp1600
Vto
p1601
F104.72
sVconfidence
p1602
F0.48899999999999999
sVspeaker
p1603
I2
sVfrom
p1604
F104.55
sVfinal
p1605
I00
sa(dp1606
Vto
p1607
F105.48999999999999
sVconfidence
p1608
F0.48899999999999999
sVspeaker
p1609
I2
sVfrom
p1610
F104.72
sVfinal
p1611
I00
sa(dp1612
Vto
p1613
F105.91
sVconfidence
p1614
F0.442
sVspeaker
p1615
I2
sVfrom
p1616
F105.70999999999999
sVfinal
p1617
I00
sa(dp1618
Vto
p1619
F106.19
sVconfidence
p1620
F0.442
sVspeaker
p1621
I2
sVfrom
p1622
F105.91
sVfinal
p1623
I00
sa(dp1624
Vto
p1625
F106.7
sVconfidence
p1626
F0.442
sVspeaker
p1627
I2
sVfrom
p1628
F106.19
sVfinal
p1629
I00
sa(dp1630
Vto
p1631
F106.81999999999999
sVconfidence
p1632
F0.442
sVspeaker
p1633
I2
sVfrom
p1634
F106.7
sVfinal
p1635
I00
sa(dp1636
Vto
p1637
F106.95
sVconfidence
p1638
F0.442
sVspeaker
p1639
I2
sVfrom
p1640
F106.81999999999999
sVfinal
p1641
I00
sa(dp1642
Vto
p1643
F107.12
sVconfidence
p1644
F0.442
sVspeaker
p1645
I2
sVfrom
p1646
F106.95
sVfinal
p1647
I00
sa(dp1648
Vto
p1649
F107.22
sVconfidence
p1650
F0.442
sVspeaker
p1651
I2
sVfrom
p1652
F107.12
sVfinal
p1653
I00
sa(dp1654
Vto
p1655
F107.69
sVconfidence
p1656
F0.442
sVspeaker
p1657
I2
sVfrom
p1658
F107.22
sVfinal
p1659
I00
sa(dp1660
Vto
p1661
F108.23999999999999
sVconfidence
p1662
F0.442
sVspeaker
p1663
I2
sVfrom
p1664
F107.69
sVfinal
p1665
I00
sa(dp1666
Vto
p1667
F108.54000000000001
sVconfidence
p1668
F0.442
sVspeaker
p1669
I2
sVfrom
p1670
F108.23999999999999
sVfinal
p1671
I00
sa(dp1672
Vto
p1673
F108.8
sVconfidence
p1674
F0.48899999999999999
sVspeaker
p1675
I2
sVfrom
p1676
F108.56999999999999
sVfinal
p1677
I00
sa(dp1678
Vto
p1679
F108.94
sVconfidence
p1680
F0.48899999999999999
sVspeaker
p1681
I2
sVfrom
p1682
F108.8
sVfinal
p1683
I00
sa(dp1684
Vto
p1685
F109.3
sVconfidence
p1686
F0.48899999999999999
sVspeaker
p1687
I2
sVfrom
p1688
F108.94
sVfinal
p1689
I00
sa(dp1690
Vto
p1691
F109.77
sVconfidence
p1692
F0.48899999999999999
sVspeaker
p1693
I2
sVfrom
p1694
F109.3
sVfinal
p1695
I00
sa(dp1696
Vto
p1697
F110.23999999999999
sVconfidence
p1698
F0.48899999999999999
sVspeaker
p1699
I2
sVfrom
p1700
F109.77
sVfinal
p1701
I00
sa(dp1702
Vto
p1703
F110.39
sVconfidence
p1704
F0.48899999999999999
sVspeaker
p1705
I2
sVfrom
p1706
F110.23999999999999
sVfinal
p1707
I00
sa(dp1708
Vto
p1709
F110.61
sVconfidence
p1710
F0.48899999999999999
sVspeaker
p1711
I2
sVfrom
p1712
F110.39
sVfinal
p1713
I00
sa(dp1714
Vto
p1715
F110.76000000000001
sVconfidence
p1716
F0.48899999999999999
sVspeaker
p1717
I2
sVfrom
p1718
F110.61
sVfinal
p1719
I00
sa(dp1720
Vto
p1721
F111.17
sVconfidence
p1722
F0.48899999999999999
sVspeaker
p1723
I2
sVfrom
p1724
F110.76000000000001
sVfinal
p1725
I00
sa(dp1726
Vto
p1727
F112.62
sVconfidence
p1728
F0.51200000000000001
sVspeaker
p1729
I2
sVfrom
p1730
F112.03
sVfinal
p1731
I00
sa(dp1732
Vto
p1733
F112.81
sVconfidence
p1734
F0.51200000000000001
sVspeaker
p1735
I2
sVfrom
p1736
F112.62
sVfinal
p1737
I00
sa(dp1738
Vto
p1739
F113.25
sVconfidence
p1740
F0.51200000000000001
sVspeaker
p1741
I2
sVfrom
p1742
F112.81
sVfinal
p1743
I00
sa(dp1744
Vto
p1745
F113.73999999999999
sVconfidence
p1746
F0.51200000000000001
sVspeaker
p1747
I2
sVfrom
p1748
F113.25
sVfinal
p1749
I00
sa(dp1750
Vto
p1751
F114.48999999999999
sVconfidence
p1752
F0.51200000000000001
sVspeaker
p1753
I2
sVfrom
p1754
F113.73999999999999
sVfinal
p1755
I00
sa(dp1756
Vto
p1757
F114.68000000000001
sVconfidence
p1758
F0.51200000000000001
sVspeaker
p1759
I2
sVfrom
p1760
F114.48999999999999
sVfinal
p1761
I00
sa(dp1762
Vto
p1763
F114.83
sVconfidence
p1764
F0.51200000000000001
sVspeaker
p1765
I2
sVfrom
p1766
F114.68000000000001
sVfinal
p1767
I00
sa(dp1768
Vto
p1769
F115.33
sVconfidence
p1770
F0.51200000000000001
sVspeaker
p1771
I2
sVfrom
p1772
F114.83
sVfinal
p1773
I00
sa(dp1774
Vto
p1775
F116.77
sVconfidence
p1776
F0.51200000000000001
sVspeaker
p1777
I0
sVfrom
p1778
F116.43000000000001
sVfinal
p1779
I00
sa(dp1780
Vto
p1781
F117.31999999999999
sVconfidence
p1782
F0.51200000000000001
sVspeaker
p1783
I0
sVfrom
p1784
F116.77
sVfinal
p1785
I00
sa(dp1786
Vto
p1787
F118.13
sVconfidence
p1788
F0.495
sVspeaker
p1789
I0
sVfrom
p1790
F117.75
sVfinal
p1791
I00
sa(dp1792
Vto
p1793
F118.40000000000001
sVconfidence
p1794
F0.51700000000000002
sVspeaker
p1795
I0
sVfrom
p1796
F118.16
sVfinal
p1797
I00
sa(dp1798
Vto
p1799
F118.75
sVconfidence
p1800
F0.51700000000000002
sVspeaker
p1801
I0
sVfrom
p1802
F118.40000000000001
sVfinal
p1803
I00
sa(dp1804
Vto
p1805
F118.95
sVconfidence
p1806
F0.51700000000000002
sVspeaker
p1807
I0
sVfrom
p1808
F118.75
sVfinal
p1809
I00
sa(dp1810
Vto
p1811
F118.98999999999999
sVconfidence
p1812
F0.51700000000000002
sVspeaker
p1813
I0
sVfrom
p1814
F118.95
sVfinal
p1815
I00
sa(dp1816
Vto
p1817
F119.37
sVconfidence
p1818
F0.51700000000000002
sVspeaker
p1819
I0
sVfrom
p1820
F118.98999999999999
sVfinal
p1821
I00
sa(dp1822
Vto
p1823
F119.56
sVconfidence
p1824
F0.51700000000000002
sVspeaker
p1825
I0
sVfrom
p1826
F119.37
sVfinal
p1827
I00
sa(dp1828
Vto
p1829
F119.91
sVconfidence
p1830
F0.51700000000000002
sVspeaker
p1831
I0
sVfrom
p1832
F119.56
sVfinal
p1833
I00
sa(dp1834
Vto
p1835
F120.04000000000001
sVconfidence
p1836
F0.51700000000000002
sVspeaker
p1837
I0
sVfrom
p1838
F119.91
sVfinal
p1839
I00
sa(dp1840
Vto
p1841
F120.11
sVconfidence
p1842
F0.51700000000000002
sVspeaker
p1843
I0
sVfrom
p1844
F120.04000000000001
sVfinal
p1845
I00
sa(dp1846
Vto
p1847
F120.61
sVconfidence
p1848
F0.51700000000000002
sVspeaker
p1849
I0
sVfrom
p1850
F120.11
sVfinal
p1851
I00
sa(dp1852
Vto
p1853
F121.12
sVconfidence
p1854
F0.51700000000000002
sVspeaker
p1855
I0
sVfrom
p1856
F120.86
sVfinal
p1857
I00
sa(dp1858
Vto
p1859
F121.53
sVconfidence
p1860
F0.51700000000000002
sVspeaker
p1861
I0
sVfrom
p1862
F121.12
sVfinal
p1863
I00
sa(dp1864
Vto
p1865
F122.14
sVconfidence
p1866
F0.51700000000000002
sVspeaker
p1867
I0
sVfrom
p1868
F121.53
sVfinal
p1869
I00
sa(dp1870
Vto
p1871
F122.34999999999999
sVconfidence
p1872
F0.51700000000000002
sVspeaker
p1873
I0
sVfrom
p1874
F122.14
sVfinal
p1875
I00
sa(dp1876
Vto
p1877
F122.78
sVconfidence
p1878
F0.51700000000000002
sVspeaker
p1879
I0
sVfrom
p1880
F122.34999999999999
sVfinal
p1881
I00
sa(dp1882
Vto
p1883
F123.40000000000001
sVconfidence
p1884
F0.51700000000000002
sVspeaker
p1885
I0
sVfrom
p1886
F122.78
sVfinal
p1887
I00
sa(dp1888
Vto
p1889
F124.15000000000001
sVconfidence
p1890
F0.499
sVspeaker
p1891
I0
sVfrom
p1892
F124.03
sVfinal
p1893
I00
sa(dp1894
Vto
p1895
F124.44
sVconfidence
p1896
F0.499
sVspeaker
p1897
I0
sVfrom
p1898
F124.15000000000001
sVfinal
p1899
I00
sa(dp1900
Vto
p1901
F124.67
sVconfidence
p1902
F0.499
sVspeaker
p1903
I0
sVfrom
p1904
F124.44
sVfinal
p1905
I00
sa(dp1906
Vto
p1907
F125.17
sVconfidence
p1908
F0.499
sVspeaker
p1909
I0
sVfrom
p1910
F124.67
sVfinal
p1911
I00
sa(dp1912
Vto
p1913
F125.70999999999999
sVconfidence
p1914
F0.499
sVspeaker
p1915
I0
sVfrom
p1916
F125.17
sVfinal
p1917
I00
sa(dp1918
Vto
p1919
F125.93000000000001
sVconfidence
p1920
F0.499
sVspeaker
p1921
I0
sVfrom
p1922
F125.70999999999999
sVfinal
p1923
I00
sa(dp1924
Vto
p1925
F126.36
sVconfidence
p1926
F0.499
sVspeaker
p1927
I0
sVfrom
p1928
F125.93000000000001
sVfinal
p1929
I00
sa(dp1930
Vto
p1931
F126.45999999999999
sVconfidence
p1932
F0.499
sVspeaker
p1933
I0
sVfrom
p1934
F126.36
sVfinal
p1935
I00
sa(dp1936
Vto
p1937
F126.88
sVconfidence
p1938
F0.499
sVspeaker
p1939
I0
sVfrom
p1940
F126.45999999999999
sVfinal
p1941
I00
sa(dp1942
Vto
p1943
F127.14
sVconfidence
p1944
F0.499
sVspeaker
p1945
I0
sVfrom
p1946
F126.88
sVfinal
p1947
I00
sa(dp1948
Vto
p1949
F127.78
sVconfidence
p1950
F0.499
sVspeaker
p1951
I0
sVfrom
p1952
F127.14
sVfinal
p1953
I00
sa(dp1954
Vto
p1955
F127.90000000000001
sVconfidence
p1956
F0.499
sVspeaker
p1957
I0
sVfrom
p1958
F127.78
sVfinal
p1959
I00
sa(dp1960
Vto
p1961
F128.09
sVconfidence
p1962
F0.499
sVspeaker
p1963
I0
sVfrom
p1964
F127.90000000000001
sVfinal
p1965
I00
sa(dp1966
Vto
p1967
F128.46000000000001
sVconfidence
p1968
F0.499
sVspeaker
p1969
I0
sVfrom
p1970
F128.09
sVfinal
p1971
I00
sa(dp1972
Vto
p1973
F129.00999999999999
sVconfidence
p1974
F0.499
sVspeaker
p1975
I0
sVfrom
p1976
F128.46000000000001
sVfinal
p1977
I00
sa(dp1978
Vto
p1979
F129.38
sVconfidence
p1980
F0.499
sVspeaker
p1981
I0
sVfrom
p1982
F129.00999999999999
sVfinal
p1983
I00
sa(dp1984
Vto
p1985
F129.5
sVconfidence
p1986
F0.499
sVspeaker
p1987
I0
sVfrom
p1988
F129.38
sVfinal
p1989
I00
sa(dp1990
Vto
p1991
F129.65000000000001
sVconfidence
p1992
F0.499
sVspeaker
p1993
I0
sVfrom
p1994
F129.5
sVfinal
p1995
I00
sa(dp1996
Vto
p1997
F129.72999999999999
sVconfidence
p1998
F0.499
sVspeaker
p1999
I0
sVfrom
p2000
F129.65000000000001
sVfinal
p2001
I00
sa(dp2002
Vto
p2003
F130.16
sVconfidence
p2004
F0.499
sVspeaker
p2005
I0
sVfrom
p2006
F129.72999999999999
sVfinal
p2007
I01
sasVresults
p2008
(lp2009
(dp2010
Valternatives
p2011
(lp2012
(dp2013
Vtimestamps
p2014
(lp2015
(lp2016
Vfantastic
p2017
aF0.92000000000000004
aF1.79
aasVconfidence
p2018
F0.997
sVtranscript
p2019
Vfantastic 
p2020
sasVfinal
p2021
I01
sa(dp2022
Valternatives
p2023
(lp2024
(dp2025
Vtimestamps
p2026
(lp2027
(lp2028
Vso
p2029
aF2.29
aF2.5600000000000001
aa(lp2030
Vwhat's
p2031
aF2.5600000000000001
aF2.8399999999999999
aa(lp2032
Vnext
p2033
aF2.8399999999999999
aF3.23
aa(lp2034
Vhere
p2035
aF3.23
aF3.6200000000000001
aasVconfidence
p2036
F0.92800000000000005
sVtranscript
p2037
Vso what's next here 
p2038
sasVfinal
p2039
I01
sa(dp2040
Valternatives
p2041
(lp2042
(dp2043
Vtimestamps
p2044
(lp2045
(lp2046
Vnumber
p2047
aF4.1799999999999997
aF4.5899999999999999
aa(lp2048
Vfour
p2049
aF4.5899999999999999
aF5.1200000000000001
aa(lp2050
Vis
p2051
aF5.1200000000000001
aF5.2800000000000002
aa(lp2052
VPR
p2053
aF5.2800000000000002
aF5.7300000000000004
aa(lp2054
Vactivities
p2055
aF5.7300000000000004
aF6.5300000000000002
aasVconfidence
p2056
F0.85799999999999998
sVtranscript
p2057
Vnumber four is PR activities 
p2058
sasVfinal
p2059
I01
sa(dp2060
Valternatives
p2061
(lp2062
(dp2063
Vtimestamps
p2064
(lp2065
(lp2066
Vthat
p2067
aF7.04
aF7.3300000000000001
aa(lp2068
Vmeans
p2069
aF7.3300000000000001
aF7.6500000000000004
aa(lp2070
Vwhite
p2071
aF7.6500000000000004
aF7.9800000000000004
aa(lp2072
Vpaper
p2073
aF7.9800000000000004
aF8.5299999999999994
aa(lp2074
Vlocal
p2075
aF8.5299999999999994
aF8.9000000000000004
aa(lp2076
Vmedia
p2077
aF8.9000000000000004
aF9.2400000000000002
aa(lp2078
Vstuff
p2079
aF9.2400000000000002
aF9.75
aa(lp2080
Vand
p2081
aF9.8200000000000003
aF10.15
aa(lp2082
Vtaking
p2083
aF10.15
aF10.43
aa(lp2084
Vcare
p2085
aF10.43
aF10.66
aa(lp2086
Vof
p2087
aF10.66
aF10.77
aa(lp2088
Vpress
p2089
aF10.77
aF11.15
aa(lp2090
Vreleases
p2091
aF11.15
aF11.67
aa(lp2092
Vfor
p2093
aF11.67
aF11.85
aa(lp2094
Vour
p2095
aF11.85
aF11.970000000000001
aa(lp2096
Vnew
p2097
aF11.970000000000001
aF12.1
aa(lp2098
Vservices
p2099
aF12.1
aF12.92
aasVconfidence
p2100
F0.95099999999999996
sVtranscript
p2101
Vthat means white paper local media stuff and taking care of press releases for our new services 
p2102
sasVfinal
p2103
I01
sa(dp2104
Valternatives
p2105
(lp2106
(dp2107
Vtimestamps
p2108
(lp2109
(lp2110
Vexcuse
p2111
aF13.84
aF14.42
aa(lp2112
Vme
p2113
aF14.42
aF14.59
aa(lp2114
VCarlos
p2115
aF14.619999999999999
aF15.24
aasVconfidence
p2116
F0.99099999999999999
sVtranscript
p2117
Vexcuse me Carlos 
p2118
sasVfinal
p2119
I01
sa(dp2120
Valternatives
p2121
(lp2122
(dp2123
Vtimestamps
p2124
(lp2125
(lp2126
Vnumber
p2127
aF15.609999999999999
aF16.07
aa(lp2128
Vfive
p2129
aF16.07
aF16.550000000000001
aa(lp2130
Vis
p2131
aF16.550000000000001
aF16.699999999999999
aa(lp2132
Vnew
p2133
aF16.699999999999999
aF16.920000000000002
aa(lp2134
Vbrochures
p2135
aF16.920000000000002
aF17.77
aa(lp2136
Vso
p2137
aF18.030000000000001
aF18.309999999999999
aa(lp2138
Vfour
p2139
aF18.309999999999999
aF18.670000000000002
aa(lp2140
Vand
p2141
aF18.670000000000002
aF18.859999999999999
aa(lp2142
Vfive
p2143
aF18.859999999999999
aF19.300000000000001
aa(lp2144
Vboth
p2145
aF19.300000000000001
aF19.649999999999999
aa(lp2146
Vinvolve
p2147
aF19.649999999999999
aF20.09
aa(lp2148
Va
aF20.09
aF20.140000000000001
aa(lp2149
Vlot
p2150
aF20.140000000000001
aF20.34
aa(lp2151
Vof
p2152
aF20.34
aF20.43
aa(lp2153
Vwriting
p2154
aF20.43
aF20.899999999999999
aasVconfidence
p2155
F0.95599999999999996
sVtranscript
p2156
Vnumber five is new brochures so four and five both involve a lot of writing 
p2157
sasVfinal
p2158
I01
sa(dp2159
Valternatives
p2160
(lp2161
(dp2162
Vtimestamps
p2163
(lp2164
(lp2165
Vmaybe
p2166
aF21.43
aF21.82
aa(lp2167
Vthey
p2168
aF21.82
aF21.960000000000001
aa(lp2169
Vcan
p2170
aF21.960000000000001
aF22.129999999999999
aa(lp2171
Vbe
p2172
aF22.129999999999999
aF22.219999999999999
aa(lp2173
Vlumped
p2174
aF22.219999999999999
aF22.559999999999999
aa(lp2175
Vtogether
p2176
aF22.59
aF23.16
aa(lp2177
Vand
p2178
aF23.370000000000001
aF23.57
aa(lp2179
Vone
p2180
aF23.57
aF23.77
aa(lp2181
Vperson
p2182
aF23.77
aF24.18
aa(lp2183
Vcould
p2184
aF24.18
aF24.399999999999999
aa(lp2185
Vsee
p2186
aF24.399999999999999
aF24.649999999999999
aa(lp2187
Veverything
p2188
aF24.649999999999999
aF25.09
aa(lp2189
Vthrough
p2190
aF25.09
aF25.41
aasVconfidence
p2191
F0.93999999999999995
sVtranscript
p2192
Vmaybe they can be lumped together and one person could see everything through 
p2193
sasVfinal
p2194
I01
sa(dp2195
Valternatives
p2196
(lp2197
(dp2198
Vtimestamps
p2199
(lp2200
(lp2201
Vyeah
p2202
aF26.109999999999999
aF26.530000000000001
aa(lp2203
Vgood
p2204
aF26.530000000000001
aF26.739999999999998
aa(lp2205
Videa
p2206
aF26.739999999999998
aF27.25
aasVconfidence
p2207
F0.96299999999999997
sVtranscript
p2208
Vyeah good idea 
p2209
sasVfinal
p2210
I01
sa(dp2211
Valternatives
p2212
(lp2213
(dp2214
Vtimestamps
p2215
(lp2216
(lp2217
Vand
p2218
aF27.800000000000001
aF27.98
aa(lp2219
VMarion
p2220
aF27.98
aF28.530000000000001
aa(lp2221
VI'm
p2222
aF28.77
aF29.010000000000002
aa(lp2223
Vgoing
p2224
aF29.010000000000002
aF29.32
aa(lp2225
Vto
p2226
aF29.32
aF29.489999999999998
aa(lp2227
Vassign
p2228
aF29.489999999999998
aF29.859999999999999
aa(lp2229
Vresponsibility
p2230
aF29.859999999999999
aF30.719999999999999
aa(lp2231
Vfor
p2232
aF30.719999999999999
aF30.890000000000001
aa(lp2233
Vthese
p2234
aF30.890000000000001
aF31.16
aa(lp2235
Vto
p2236
aF31.16
aF31.309999999999999
aa(lp2237
Vyou
p2238
aF31.309999999999999
aF31.690000000000001
aasVconfidence
p2239
F0.94899999999999995
sVtranscript
p2240
Vand Marion I'm going to assign responsibility for these to you 
p2241
sasVfinal
p2242
I01
sa(dp2243
Valternatives
p2244
(lp2245
(dp2246
Vtimestamps
p2247
(lp2248
(lp2249
Vyou're
p2250
aF32.310000000000002
aF32.549999999999997
aa(lp2251
Vthe
p2252
aF32.549999999999997
aF32.670000000000002
aa(lp2253
Vstrongest
p2254
aF32.670000000000002
aF33.280000000000001
aa(lp2255
Vwriter
p2256
aF33.280000000000001
aF33.57
aa(lp2257
Vby
p2258
aF33.57
aF33.75
aa(lp2259
Vfar
p2260
aF33.75
aF34.299999999999997
aasVconfidence
p2261
F0.97099999999999997
sVtranscript
p2262
Vyou're the strongest writer by far 
p2263
sasVfinal
p2264
I01
sa(dp2265
Valternatives
p2266
(lp2267
(dp2268
Vtimestamps
p2269
(lp2270
(lp2271
Vokay
p2272
aF34.990000000000002
aF35.340000000000003
aa(lp2273
Vcosts
p2274
aF35.340000000000003
aF35.979999999999997
aa(lp2275
VI'm
p2276
aF36.170000000000002
aF36.340000000000003
aa(lp2277
Vhappy
p2278
aF36.340000000000003
aF36.640000000000001
aa(lp2279
Vto
p2280
aF36.640000000000001
aF36.740000000000002
aa(lp2281
Vtake
p2282
aF36.740000000000002
aF37.030000000000001
aa(lp2283
Von
p2284
aF37.030000000000001
aF37.170000000000002
aa(lp2285
Vthat
p2286
aF37.170000000000002
aF37.369999999999997
aa(lp2287
Vrole
p2288
aF37.369999999999997
aF37.719999999999999
aasVconfidence
p2289
F0.79800000000000004
sVtranscript
p2290
Vokay costs I'm happy to take on that role 
p2291
sasVfinal
p2292
I01
sa(dp2293
Valternatives
p2294
(lp2295
(dp2296
Vtimestamps
p2297
(lp2298
(lp2299
Vgreat
p2300
aF38.329999999999998
aF38.68
aa(lp2301
Vstuff
p2302
aF38.68
aF39.170000000000002
aasVconfidence
p2303
F0.99299999999999999
sVtranscript
p2304
Vgreat stuff 
p2305
sasVfinal
p2306
I01
sa(dp2307
Valternatives
p2308
(lp2309
(dp2310
Vtimestamps
p2311
(lp2312
(lp2313
Vthen
p2314
aF39.899999999999999
aF40.119999999999997
aa(lp2315
Vplease
p2316
aF40.119999999999997
aF40.469999999999999
aa(lp2317
Vreport
p2318
aF40.469999999999999
aF40.869999999999997
aa(lp2319
Vback
p2320
aF40.869999999999997
aF41.109999999999999
aa(lp2321
Vto
p2322
aF41.109999999999999
aF41.229999999999997
aa(lp2323
Vmeet
p2324
aF41.229999999999997
aF41.490000000000002
aa(lp2325
Veach
p2326
aF41.520000000000003
aF41.729999999999997
aa(lp2327
Vstep
p2328
aF41.729999999999997
aF42.270000000000003
aasVconfidence
p2329
F0.877
sVtranscript
p2330
Vthen please report back to meet each step 
p2331
sasVfinal
p2332
I01
sa(dp2333
Valternatives
p2334
(lp2335
(dp2336
Vtimestamps
p2337
(lp2338
(lp2339
VI
aF42.850000000000001
aF43.030000000000001
aa(lp2340
Vjust
p2341
aF43.030000000000001
aF43.289999999999999
aa(lp2342
Vwant
p2343
aF43.289999999999999
aF43.5
aa(lp2344
Vto
p2345
aF43.5
aF43.600000000000001
aa(lp2346
Vmake
p2347
aF43.600000000000001
aF43.770000000000003
aa(lp2348
Vsure
p2349
aF43.770000000000003
aF43.969999999999999
aa(lp2350
Vwe're
p2351
aF43.969999999999999
aF44.119999999999997
aa(lp2352
Von
p2353
aF44.119999999999997
aF44.289999999999999
aa(lp2354
Vmessage
p2355
aF44.289999999999999
aF44.729999999999997
aa(lp2356
Vwith
p2357
aF44.729999999999997
aF44.920000000000002
aa(lp2358
Veverything
p2359
aF44.950000000000003
aF45.630000000000003
aasVconfidence
p2360
F0.93500000000000005
sVtranscript
p2361
VI just want to make sure we're on message with everything 
p2362
sasVfinal
p2363
I01
sa(dp2364
Valternatives
p2365
(lp2366
(dp2367
Vtimestamps
p2368
(lp2369
(lp2370
Vsure
p2371
aF46.200000000000003
aF46.490000000000002
aa(lp2372
Vthing
p2373
aF46.490000000000002
aF46.909999999999997
aasVconfidence
p2374
F0.82699999999999996
sVtranscript
p2375
Vsure thing 
p2376
sasVfinal
p2377
I01
sa(dp2378
Valternatives
p2379
(lp2380
(dp2381
Vtimestamps
p2382
(lp2383
(lp2384
Vokay
p2385
aF47.829999999999998
aF48.409999999999997
aasVconfidence
p2386
F0.995
sVtranscript
p2387
Vokay 
p2388
sasVfinal
p2389
I01
sa(dp2390
Valternatives
p2391
(lp2392
(dp2393
Vtimestamps
p2394
(lp2395
(lp2396
Vnext
p2397
aF48.880000000000003
aF49.310000000000002
aa(lp2398
Vyear
p2399
aF49.310000000000002
aF49.649999999999999
aasVconfidence
p2400
F0.86099999999999999
sVtranscript
p2401
Vnext year 
p2402
sasVfinal
p2403
I01
sa(dp2404
Valternatives
p2405
(lp2406
(dp2407
Vtimestamps
p2408
(lp2409
(lp2410
Vlet's
p2411
aF50.200000000000003
aF50.5
aa(lp2412
Vtake
p2413
aF50.5
aF50.75
aa(lp2414
Va
aF50.75
aF50.829999999999998
aa(lp2415
Vlook
p2416
aF50.829999999999998
aF51.030000000000001
aa(lp2417
Vat
p2418
aF51.030000000000001
aF51.140000000000001
aa(lp2419
Vsetting
p2420
aF51.140000000000001
aF51.509999999999998
aa(lp2421
Vup
p2422
aF51.509999999999998
aF51.689999999999998
aa(lp2423
Va
aF51.689999999999998
aF51.729999999999997
aa(lp2424
Vnew
p2425
aF51.729999999999997
aF51.93
aa(lp2426
VCRM
p2427
aF51.93
aF52.840000000000003
aasVconfidence
p2428
F0.90300000000000002
sVtranscript
p2429
Vlet's take a look at setting up a new CRM 
p2430
sasVfinal
p2431
I01
sa(dp2432
Valternatives
p2433
(lp2434
(dp2435
Vtimestamps
p2436
(lp2437
(lp2438
Vthat's
p2439
aF53.229999999999997
aF53.520000000000003
aa(lp2440
Va
aF53.520000000000003
aF53.590000000000003
aa(lp2441
VBiggie
p2442
aF53.590000000000003
aF54.079999999999998
aasVconfidence
p2443
F0.94199999999999995
sVtranscript
p2444
Vthat's a Biggie 
p2445
sasVfinal
p2446
I01
sa(dp2447
Valternatives
p2448
(lp2449
(dp2450
Vtimestamps
p2451
(lp2452
(lp2453
Va
aF54.670000000000002
aF54.759999999999998
aa(lp2454
Vmajor
p2455
aF54.759999999999998
aF55.240000000000002
aa(lp2456
Vpart
p2457
aF55.240000000000002
aF55.509999999999998
aa(lp2458
Vof
p2459
aF55.509999999999998
aF55.609999999999999
aa(lp2460
Vpushing
p2461
aF55.609999999999999
aF55.950000000000003
aa(lp2462
Vthis
p2463
aF55.950000000000003
aF56.130000000000003
aa(lp2464
Vplan
p2465
aF56.130000000000003
aF56.43
aa(lp2466
Vforward
p2467
aF56.43
aF57.009999999999998
aasVconfidence
p2468
F0.92300000000000004
sVtranscript
p2469
Va major part of pushing this plan forward 
p2470
sasVfinal
p2471
I01
sa(dp2472
Valternatives
p2473
(lp2474
(dp2475
Vtimestamps
p2476
(lp2477
(lp2478
Vbut
p2479
aF57.670000000000002
aF57.82
aa(lp2480
VI
aF57.82
aF57.880000000000003
aa(lp2481
Vknow
p2482
aF57.880000000000003
aF58.060000000000002
aa(lp2483
Vit's
p2484
aF58.060000000000002
aF58.219999999999999
aa(lp2485
Vreally
p2486
aF58.219999999999999
aF58.719999999999999
aa(lp2487
Vgoing
p2488
aF58.719999999999999
aF59
aa(lp2489
Vto
p2490
aF59
aF59.109999999999999
aa(lp2491
Vhelp
p2492
aF59.109999999999999
aF59.350000000000001
aa(lp2493
Vus
p2494
aF59.350000000000001
aF59.479999999999997
aa(lp2495
Vtrack
p2496
aF59.479999999999997
aF59.789999999999999
aa(lp2497
Vprogress
p2498
aF59.789999999999999
aF60.399999999999999
aa(lp2499
Vover
p2500
aF60.399999999999999
aF60.700000000000003
aa(lp2501
Vall
p2502
aF60.700000000000003
aF61.049999999999997
aasVconfidence
p2503
F0.89300000000000002
sVtranscript
p2504
Vbut I know it's really going to help us track progress over all 
p2505
sasVfinal
p2506
I01
sa(dp2507
Valternatives
p2508
(lp2509
(dp2510
Vtimestamps
p2511
(lp2512
(lp2513
Valright
p2514
aF62.049999999999997
aF62.640000000000001
aa(lp2515
VCarlos
p2516
aF62.640000000000001
aF63.259999999999998
aa(lp2517
VI
aF63.469999999999999
aF63.619999999999997
aa(lp2518
Vthink
p2519
aF63.619999999999997
aF63.880000000000003
aa(lp2520
Vthat's
p2521
aF63.880000000000003
aF64.140000000000001
aa(lp2522
Vin
p2523
aF64.140000000000001
aF64.25
aa(lp2524
Vmy
p2525
aF64.25
aF64.450000000000003
aa(lp2526
Vwheelhouse
p2527
aF64.450000000000003
aF65.180000000000007
aasVconfidence
p2528
F0.85099999999999998
sVtranscript
p2529
Valright Carlos I think that's in my wheelhouse 
p2530
sasVfinal
p2531
I01
sa(dp2532
Valternatives
p2533
(lp2534
(dp2535
Vtimestamps
p2536
(lp2537
(lp2538
VI'm
p2539
aF65.489999999999995
aF65.680000000000007
aa(lp2540
Vactually
p2541
aF65.680000000000007
aF66.129999999999995
aa(lp2542
Vreally
p2543
aF66.129999999999995
aF66.540000000000006
aa(lp2544
Vlooking
p2545
aF66.540000000000006
aF66.849999999999994
aa(lp2546
Vforward
p2547
aF66.849999999999994
aF67.299999999999997
aa(lp2548
Vto
p2549
aF67.299999999999997
aF67.400000000000006
aa(lp2550
Vhaving
p2551
aF67.400000000000006
aF67.709999999999994
aa(lp2552
Vthat
p2553
aF67.709999999999994
aF68.010000000000005
aasVconfidence
p2554
F0.98699999999999999
sVtranscript
p2555
VI'm actually really looking forward to having that 
p2556
sasVfinal
p2557
I01
sa(dp2558
Valternatives
p2559
(lp2560
(dp2561
Vtimestamps
p2562
(lp2563
(lp2564
Vme
p2565
aF68.769999999999996
aF69.040000000000006
aa(lp2566
Vtoo
p2567
aF69.040000000000006
aF69.469999999999999
aasVconfidence
p2568
F0.98399999999999999
sVtranscript
p2569
Vme too 
p2570
sasVfinal
p2571
I01
sa(dp2572
Valternatives
p2573
(lp2574
(dp2575
Vtimestamps
p2576
(lp2577
(lp2578
Vbut
p2579
aF70.090000000000003
aF70.349999999999994
aa(lp2580
VI
aF70.349999999999994
aF70.469999999999999
aa(lp2581
Vam
p2582
aF70.469999999999999
aF70.620000000000005
aa(lp2583
Vjust
p2584
aF70.620000000000005
aF70.959999999999994
aa(lp2585
Va
aF70.959999999999994
aF71
aa(lp2586
Vbit
p2587
aF71
aF71.310000000000002
aa(lp2588
Vconcerned
p2589
aF71.310000000000002
aF72.090000000000003
aa(lp2590
Vabout
p2591
aF72.120000000000005
aF72.430000000000007
aa(lp2592
Vwhether
p2593
aF72.430000000000007
aF72.709999999999994
aa(lp2594
Vwe
p2595
aF72.709999999999994
aF72.829999999999998
aa(lp2596
Vcan
p2597
aF72.829999999999998
aF72.989999999999995
aa(lp2598
Vstick
p2599
aF72.989999999999995
aF73.340000000000003
aa(lp2600
Vto
p2601
aF73.340000000000003
aF73.469999999999999
aa(lp2602
Vthe
p2603
aF73.469999999999999
aF73.569999999999993
aa(lp2604
Vtime
p2605
aF73.569999999999993
aF73.879999999999995
aa(lp2606
Vline
p2607
aF73.879999999999995
aF74.120000000000005
aa(lp2608
Von
p2609
aF74.120000000000005
aF74.260000000000005
aa(lp2610
Vthat
p2611
aF74.260000000000005
aF74.549999999999997
aasVconfidence
p2612
F0.91500000000000004
sVtranscript
p2613
Vbut I am just a bit concerned about whether we can stick to the time line on that 
p2614
sasVfinal
p2615
I01
sa(dp2616
Valternatives
p2617
(lp2618
(dp2619
Vtimestamps
p2620
(lp2621
(lp2622
Vin
p2623
aF75.25
aF75.459999999999994
aa(lp2624
Vour
p2625
aF75.459999999999994
aF75.599999999999994
aa(lp2626
Vfinal
p2627
aF75.599999999999994
aF75.980000000000004
aa(lp2628
Vmeeting
p2629
aF75.980000000000004
aF76.340000000000003
aa(lp2630
Vwith
p2631
aF76.340000000000003
aF76.489999999999995
aa(lp2632
Vthe
p2633
aF76.489999999999995
aF76.569999999999993
aa(lp2634
Vconsultant
p2635
aF76.569999999999993
aF77.319999999999993
aa(lp2636
VI
aF77.560000000000002
aF77.75
aa(lp2637
Vknow
p2638
aF77.75
aF78
aa(lp2639
Vwe
p2640
aF78
aF78.180000000000007
aa(lp2641
Vdecided
p2642
aF78.180000000000007
aF78.790000000000006
aa(lp2643
Vto
p2644
aF78.790000000000006
aF78.930000000000007
aa(lp2645
Vget
p2646
aF78.930000000000007
aF79.180000000000007
aa(lp2647
Vthe
p2648
aF79.180000000000007
aF79.280000000000001
aa(lp2649
VCRM
p2650
aF79.280000000000001
aF80
aa(lp2651
Vup
p2652
aF80.060000000000002
aF80.269999999999996
aa(lp2653
Vand
p2654
aF80.269999999999996
aF80.459999999999994
aa(lp2655
Vrunning
p2656
aF80.459999999999994
aF80.769999999999996
aa(lp2657
Vby
p2658
aF80.769999999999996
aF80.989999999999995
aa(lp2659
VAugust
p2660
aF80.989999999999995
aF81.579999999999998
aasVconfidence
p2661
F0.93799999999999994
sVtranscript
p2662
Vin our final meeting with the consultant I know we decided to get the CRM up and running by August 
p2663
sasVfinal
p2664
I01
sa(dp2665
Valternatives
p2666
(lp2667
(dp2668
Vtimestamps
p2669
(lp2670
(lp2671
Vbut
p2672
aF82.069999999999993
aF82.299999999999997
aa(lp2673
Vsummer
p2674
aF82.299999999999997
aF82.75
aa(lp2675
Vis
p2676
aF82.75
aF82.969999999999999
aa(lp2677
Vusually
p2678
aF82.969999999999999
aF83.409999999999997
aa(lp2679
Vso
p2680
aF83.409999999999997
aF83.719999999999999
aa(lp2681
Vbusy
p2682
aF83.719999999999999
aF84.010000000000005
aa(lp2683
Vfor
p2684
aF84.010000000000005
aF84.209999999999994
aa(lp2685
Vus
p2686
aF84.209999999999994
aF84.599999999999994
aasVconfidence
p2687
F0.999
sVtranscript
p2688
Vbut summer is usually so busy for us 
p2689
sasVfinal
p2690
I01
sa(dp2691
Valternatives
p2692
(lp2693
(dp2694
Vtimestamps
p2695
(lp2696
(lp2697
VI'm
p2698
aF85.329999999999998
aF85.549999999999997
aa(lp2699
Vthinking
p2700
aF85.549999999999997
aF86.159999999999997
aa(lp2701
Vmaybe
p2702
aF86.189999999999998
aF86.680000000000007
aa(lp2703
Vwe
p2704
aF86.680000000000007
aF86.829999999999998
aa(lp2705
Vshould
p2706
aF86.829999999999998
aF87.019999999999996
aa(lp2707
Vpush
p2708
aF87.019999999999996
aF87.340000000000003
aa(lp2709
Vit
p2710
aF87.340000000000003
aF87.459999999999994
aa(lp2711
Vback
p2712
aF87.459999999999994
aF87.939999999999998
aa(lp2713
Vby
p2714
aF88.109999999999999
aF88.359999999999999
aa(lp2715
Vat
p2716
aF88.359999999999999
aF88.489999999999995
aa(lp2717
Vleast
p2718
aF88.489999999999995
aF88.790000000000006
aa(lp2719
Va
aF88.790000000000006
aF88.819999999999993
aa(lp2720
Vmonth
p2721
aF88.819999999999993
aF89.269999999999996
aasVconfidence
p2722
F0.97999999999999998
sVtranscript
p2723
VI'm thinking maybe we should push it back by at least a month 
p2724
sasVfinal
p2725
I01
sa(dp2726
Valternatives
p2727
(lp2728
(dp2729
Vtimestamps
p2730
(lp2731
(lp2732
VI'll
p2733
aF90.040000000000006
aF90.269999999999996
aa(lp2734
Vsecond
p2735
aF90.269999999999996
aF90.799999999999997
aa(lp2736
Vthat
p2737
aF90.799999999999997
aF91.189999999999998
aasVconfidence
p2738
F0.93100000000000005
sVtranscript
p2739
VI'll second that 
p2740
sasVfinal
p2741
I01
sa(dp2742
Valternatives
p2743
(lp2744
(dp2745
Vtimestamps
p2746
(lp2747
(lp2748
Vyou'll
p2749
aF91.689999999999998
aF91.939999999999998
aa(lp2750
Vprobably
p2751
aF91.939999999999998
aF92.650000000000006
aa(lp2752
Vneed
p2753
aF92.650000000000006
aF92.870000000000005
aa(lp2754
Vsome
p2755
aF92.870000000000005
aF93.049999999999997
aa(lp2756
Vsupport
p2757
aF93.049999999999997
aF93.569999999999993
aa(lp2758
Vfrom
p2759
aF93.569999999999993
aF93.790000000000006
aa(lp2760
Vme
p2761
aF93.790000000000006
aF94
aa(lp2762
Vwith
p2763
aF94
aF94.209999999999994
aa(lp2764
Vthis
p2765
aF94.209999999999994
aF94.650000000000006
aasVconfidence
p2766
F0.872
sVtranscript
p2767
Vyou'll probably need some support from me with this 
p2768
sasVfinal
p2769
I01
sa(dp2770
Valternatives
p2771
(lp2772
(dp2773
Vtimestamps
p2774
(lp2775
(lp2776
Vand
p2777
aF95.200000000000003
aF95.579999999999998
aa(lp2778
VI
aF95.609999999999999
aF95.790000000000006
aa(lp2779
Vthink
p2780
aF95.790000000000006
aF96.069999999999993
aa(lp2781
Vit'll
p2782
aF96.069999999999993
aF96.239999999999995
aa(lp2783
Vbe
p2784
aF96.239999999999995
aF96.390000000000001
aa(lp2785
Vdifficult
p2786
aF96.390000000000001
aF96.969999999999999
aa(lp2787
Vfor
p2788
aF96.969999999999999
aF97.109999999999999
aa(lp2789
Vme
p2790
aF97.109999999999999
aF97.310000000000002
aa(lp2791
Vto
p2792
aF97.310000000000002
aF97.430000000000007
aa(lp2793
Vstay
p2794
aF97.430000000000007
aF97.700000000000003
aa(lp2795
Von
p2796
aF97.700000000000003
aF97.900000000000006
aa(lp2797
Vtrack
p2798
aF97.900000000000006
aF98.269999999999996
aa(lp2799
Vwith
p2800
aF98.269999999999996
aF98.439999999999998
aa(lp2801
Veverything
p2802
aF98.439999999999998
aF98.790000000000006
aa(lp2803
Velse
p2804
aF98.790000000000006
aF99.239999999999995
aa(lp2805
Vif
p2806
aF99.5
aF99.75
aa(lp2807
VI'm
p2808
aF99.75
aF99.909999999999997
aa(lp2809
Vtrouble
p2810
aF99.909999999999997
aF100.29000000000001
aa(lp2811
Vshooting
p2812
aF100.29000000000001
aF100.77
aa(lp2813
Va
aF100.8
aF100.87
aa(lp2814
Vnew
p2815
aF100.87
aF101.08
aa(lp2816
VC.
p2817
aF101.08
aF101.40000000000001
aa(lp2818
VR.
p2819
aF101.40000000000001
aF101.59999999999999
aa(lp2820
VM.
p2821
aF101.59999999999999
aF101.86
aa(lp2822
Vover
p2823
aF101.86
aF102.04000000000001
aa(lp2824
Vthe
p2825
aF102.04000000000001
aF102.17
aa(lp2826
Vsummer
p2827
aF102.17
aF102.7
aasVconfidence
p2828
F0.91900000000000004
sVtranscript
p2829
Vand I think it'll be difficult for me to stay on track with everything else if I'm trouble shooting a new C. R. M. over the summer 
p2830
sasVfinal
p2831
I01
sa(dp2832
Valternatives
p2833
(lp2834
(dp2835
Vtimestamps
p2836
(lp2837
(lp2838
VI
aF103.90000000000001
aF104.16
aa(lp2839
Vhear
p2840
aF104.16
aF104.40000000000001
aa(lp2841
Vwhat
p2842
aF104.40000000000001
aF104.55
aa(lp2843
Vyou're
p2844
aF104.55
aF104.72
aa(lp2845
Vsaying
p2846
aF104.72
aF105.48999999999999
aa(lp2847
Vbut
p2848
aF105.70999999999999
aF105.91
aa(lp2849
Vmy
p2850
aF105.91
aF106.19
aa(lp2851
Vconcern
p2852
aF106.19
aF106.7
aa(lp2853
Vis
p2854
aF106.7
aF106.81999999999999
aa(lp2855
Vthat
p2856
aF106.81999999999999
aF106.95
aa(lp2857
Vif
p2858
aF106.95
aF107.12
aa(lp2859
Vwe
p2860
aF107.12
aF107.22
aa(lp2861
Vdelay
p2862
aF107.22
aF107.69
aa(lp2863
Vthings
p2864
aF107.69
aF108.23999999999999
aa(lp2865
Vwill
p2866
aF108.23999999999999
aF108.54000000000001
aa(lp2867
Vend
p2868
aF108.56999999999999
aF108.8
aa(lp2869
Vup
p2870
aF108.8
aF108.94
aa(lp2871
Vnot
p2872
aF108.94
aF109.3
aa(lp2873
Vfollowing
p2874
aF109.3
aF109.77
aa(lp2875
Vthrough
p2876
aF109.77
aF110.23999999999999
aa(lp2877
Von
p2878
aF110.23999999999999
aF110.39
aa(lp2879
Vsome
p2880
aF110.39
aF110.61
aa(lp2881
Vof
p2882
aF110.61
aF110.76000000000001
aa(lp2883
Vthis
p2884
aF110.76000000000001
aF111.17
aasVconfidence
p2885
F0.95899999999999996
sVtranscript
p2886
VI hear what you're saying but my concern is that if we delay things will end up not following through on some of this 
p2887
sasVfinal
p2888
I01
sa(dp2889
Valternatives
p2890
(lp2891
(dp2892
Vtimestamps
p2893
(lp2894
(lp2895
Vstrategy
p2896
aF112.03
aF112.62
aa(lp2897
Vis
p2898
aF112.62
aF112.81
aa(lp2899
Vninety
p2900
aF112.81
aF113.25
aa(lp2901
Vpercent
p2902
aF113.25
aF113.73999999999999
aa(lp2903
Vexecution
p2904
aF113.73999999999999
aF114.48999999999999
aa(lp2905
Vas
p2906
aF114.48999999999999
aF114.68000000000001
aa(lp2907
Vthey
p2908
aF114.68000000000001
aF114.83
aa(lp2909
Vsay
p2910
aF114.83
aF115.33
aasVconfidence
p2911
F0.999
sVtranscript
p2912
Vstrategy is ninety percent execution as they say 
p2913
sasVfinal
p2914
I01
sa(dp2915
Valternatives
p2916
(lp2917
(dp2918
Vtimestamps
p2919
(lp2920
(lp2921
Vtrue
p2922
aF116.43000000000001
aF116.77
aa(lp2923
Venough
p2924
aF116.77
aF117.31999999999999
aasVconfidence
p2925
F0.996
sVtranscript
p2926
Vtrue enough 
p2927
sasVfinal
p2928
I01
sa(dp2929
Valternatives
p2930
(lp2931
(dp2932
Vtimestamps
p2933
(lp2934
(lp2935
Vbut
p2936
aF117.75
aF118.13
aa(lp2937
Vwe've
p2938
aF118.16
aF118.40000000000001
aa(lp2939
Vstill
p2940
aF118.40000000000001
aF118.75
aa(lp2941
Vgot
p2942
aF118.75
aF118.95
aa(lp2943
Va
aF118.95
aF118.98999999999999
aa(lp2944
Vcouple
p2945
aF118.98999999999999
aF119.37
aa(lp2946
Vmore
p2947
aF119.37
aF119.56
aa(lp2948
Vthings
p2949
aF119.56
aF119.91
aa(lp2950
Von
p2951
aF119.91
aF120.04000000000001
aa(lp2952
Vthe
p2953
aF120.04000000000001
aF120.11
aa(lp2954
Vlist
p2955
aF120.11
aF120.61
aa(lp2956
Vlike
p2957
aF120.86
aF121.12
aa(lp2958
Vmarket
p2959
aF121.12
aF121.53
aa(lp2960
Vresearch
p2961
aF121.53
aF122.14
aa(lp2962
Vand
p2963
aF122.14
aF122.34999999999999
aa(lp2964
Vcustomer
p2965
aF122.34999999999999
aF122.78
aa(lp2966
Vsurveys
p2967
aF122.78
aF123.40000000000001
aasVconfidence
p2968
F0.98499999999999999
sVtranscript
p2969
Vbut we've still got a couple more things on the list like market research and customer surveys 
p2970
sasVfinal
p2971
I01
sa(dp2972
Valternatives
p2973
(lp2974
(dp2975
Vtimestamps
p2976
(lp2977
(lp2978
VI
aF124.03
aF124.15000000000001
aa(lp2979
Vthink
p2980
aF124.15000000000001
aF124.44
aa(lp2981
Vour
p2982
aF124.44
aF124.67
aa(lp2983
Voriginal
p2984
aF124.67
aF125.17
aa(lp2985
Vtimeline
p2986
aF125.17
aF125.70999999999999
aa(lp2987
Vis
p2988
aF125.70999999999999
aF125.93000000000001
aa(lp2989
Vmaybe
p2990
aF125.93000000000001
aF126.36
aa(lp2991
Va
aF126.36
aF126.45999999999999
aa(lp2992
Vbit
p2993
aF126.45999999999999
aF126.88
aa(lp2994
Vtoo
p2995
aF126.88
aF127.14
aa(lp2996
Vambitious
p2997
aF127.14
aF127.78
aa(lp2998
Vto
p2999
aF127.78
aF127.90000000000001
aa(lp3000
Vget
p3001
aF127.90000000000001
aF128.09
aa(lp3002
Veverything
p3003
aF128.09
aF128.46000000000001
aa(lp3004
Vcompleted
p3005
aF128.46000000000001
aF129.00999999999999
aa(lp3006
Vbefore
p3007
aF129.00999999999999
aF129.38
aa(lp3008
Vthe
p3009
aF129.38
aF129.5
aa(lp3010
Vend
p3011
aF129.5
aF129.65000000000001
aa(lp3012
Vof
p3013
aF129.65000000000001
aF129.72999999999999
aa(lp3014
Vsummer
p3015
aF129.72999999999999
aF130.16
aasVconfidence
p3016
F0.93799999999999994
sVtranscript
p3017
VI think our original timeline is maybe a bit too ambitious to get everything completed before the end of summer 
p3018
sasVfinal
p3019
I01
sasVresult_index
p3020
I0
sVwarnings
p3021
(lp3022
VUnknown arguments: continuous.
p3023
as.