(dp1
Vspeaker_labels
p2
(lp3
(dp4
Vto
p5
F3.6200000000000001
sVconfidence
p6
F0.371
sVspeaker
p7
I0
sVfrom
p8
F3.1600000000000001
sVfinal
p9
I00
sa(dp10
Vto
p11
F4.2300000000000004
sVconfidence
p12
F0.44500000000000001
sVspeaker
p13
I1
sVfrom
p14
F4.0300000000000002
sVfinal
p15
I00
sa(dp16
Vto
p17
F4.3300000000000001
sVconfidence
p18
F0.44500000000000001
sVspeaker
p19
I1
sVfrom
p20
F4.2300000000000004
sVfinal
p21
I00
sa(dp22
Vto
p23
F4.7000000000000002
sVconfidence
p24
F0.44500000000000001
sVspeaker
p25
I1
sVfrom
p26
F4.3300000000000001
sVfinal
p27
I00
sa(dp28
Vto
p29
F5.04
sVconfidence
p30
F0.44500000000000001
sVspeaker
p31
I1
sVfrom
p32
F4.7000000000000002
sVfinal
p33
I00
sa(dp34
Vto
p35
F5.5999999999999996
sVconfidence
p36
F0.44500000000000001
sVspeaker
p37
I1
sVfrom
p38
F5.04
sVfinal
p39
I00
sa(dp40
Vto
p41
F5.7199999999999998
sVconfidence
p42
F0.44500000000000001
sVspeaker
p43
I1
sVfrom
p44
F5.5999999999999996
sVfinal
p45
I00
sa(dp46
Vto
p47
F5.7699999999999996
sVconfidence
p48
F0.44500000000000001
sVspeaker
p49
I1
sVfrom
p50
F5.7199999999999998
sVfinal
p51
I00
sa(dp52
Vto
p53
F6.25
sVconfidence
p54
F0.44500000000000001
sVspeaker
p55
I1
sVfrom
p56
F5.7699999999999996
sVfinal
p57
I00
sa(dp58
Vto
p59
F6.4000000000000004
sVconfidence
p60
F0.44500000000000001
sVspeaker
p61
I1
sVfrom
p62
F6.25
sVfinal
p63
I00
sa(dp64
Vto
p65
F6.7300000000000004
sVconfidence
p66
F0.44500000000000001
sVspeaker
p67
I1
sVfrom
p68
F6.4000000000000004
sVfinal
p69
I00
sa(dp70
Vto
p71
F6.9000000000000004
sVconfidence
p72
F0.44500000000000001
sVspeaker
p73
I1
sVfrom
p74
F6.7300000000000004
sVfinal
p75
I00
sa(dp76
Vto
p77
F7.0800000000000001
sVconfidence
p78
F0.44500000000000001
sVspeaker
p79
I1
sVfrom
p80
F6.9000000000000004
sVfinal
p81
I00
sa(dp82
Vto
p83
F7.2000000000000002
sVconfidence
p84
F0.44500000000000001
sVspeaker
p85
I1
sVfrom
p86
F7.0800000000000001
sVfinal
p87
I00
sa(dp88
Vto
p89
F7.4000000000000004
sVconfidence
p90
F0.44500000000000001
sVspeaker
p91
I1
sVfrom
p92
F7.2000000000000002
sVfinal
p93
I00
sa(dp94
Vto
p95
F7.8099999999999996
sVconfidence
p96
F0.44500000000000001
sVspeaker
p97
I1
sVfrom
p98
F7.4000000000000004
sVfinal
p99
I00
sa(dp100
Vto
p101
F8.5399999999999991
sVconfidence
p102
F0.44500000000000001
sVspeaker
p103
I1
sVfrom
p104
F7.8099999999999996
sVfinal
p105
I00
sa(dp106
Vto
p107
F9.1300000000000008
sVconfidence
p108
F0.48899999999999999
sVspeaker
p109
I1
sVfrom
p110
F8.9100000000000001
sVfinal
p111
I00
sa(dp112
Vto
p113
F9.9100000000000001
sVconfidence
p114
F0.45200000000000001
sVspeaker
p115
I1
sVfrom
p116
F9.1999999999999993
sVfinal
p117
I00
sa(dp118
Vto
p119
F10
sVconfidence
p120
F0.45200000000000001
sVspeaker
p121
I1
sVfrom
p122
F9.9100000000000001
sVfinal
p123
I00
sa(dp124
Vto
p125
F10.33
sVconfidence
p126
F0.45200000000000001
sVspeaker
p127
I1
sVfrom
p128
F10
sVfinal
p129
I00
sa(dp130
Vto
p131
F10.44
sVconfidence
p132
F0.45200000000000001
sVspeaker
p133
I1
sVfrom
p134
F10.33
sVfinal
p135
I00
sa(dp136
Vto
p137
F10.699999999999999
sVconfidence
p138
F0.45200000000000001
sVspeaker
p139
I1
sVfrom
p140
F10.44
sVfinal
p141
I00
sa(dp142
Vto
p143
F10.800000000000001
sVconfidence
p144
F0.45200000000000001
sVspeaker
p145
I1
sVfrom
p146
F10.699999999999999
sVfinal
p147
I00
sa(dp148
Vto
p149
F10.94
sVconfidence
p150
F0.45200000000000001
sVspeaker
p151
I1
sVfrom
p152
F10.800000000000001
sVfinal
p153
I00
sa(dp154
Vto
p155
F11.09
sVconfidence
p156
F0.45200000000000001
sVspeaker
p157
I1
sVfrom
p158
F10.94
sVfinal
p159
I00
sa(dp160
Vto
p161
F11.369999999999999
sVconfidence
p162
F0.45200000000000001
sVspeaker
p163
I1
sVfrom
p164
F11.09
sVfinal
p165
I00
sa(dp166
Vto
p167
F11.77
sVconfidence
p168
F0.45200000000000001
sVspeaker
p169
I1
sVfrom
p170
F11.369999999999999
sVfinal
p171
I00
sa(dp172
Vto
p173
F12.84
sVconfidence
p174
F0.44700000000000001
sVspeaker
p175
I0
sVfrom
p176
F12.380000000000001
sVfinal
p177
I00
sa(dp178
Vto
p179
F13.24
sVconfidence
p180
F0.41299999999999998
sVspeaker
p181
I0
sVfrom
p182
F12.9
sVfinal
p183
I00
sa(dp184
Vto
p185
F13.460000000000001
sVconfidence
p186
F0.41299999999999998
sVspeaker
p187
I0
sVfrom
p188
F13.24
sVfinal
p189
I00
sa(dp190
Vto
p191
F13.609999999999999
sVconfidence
p192
F0.41299999999999998
sVspeaker
p193
I0
sVfrom
p194
F13.460000000000001
sVfinal
p195
I00
sa(dp196
Vto
p197
F13.77
sVconfidence
p198
F0.41299999999999998
sVspeaker
p199
I0
sVfrom
p200
F13.609999999999999
sVfinal
p201
I00
sa(dp202
Vto
p203
F14.09
sVconfidence
p204
F0.41299999999999998
sVspeaker
p205
I0
sVfrom
p206
F13.77
sVfinal
p207
I00
sa(dp208
Vto
p209
F14.67
sVconfidence
p210
F0.441
sVspeaker
p211
I0
sVfrom
p212
F14.529999999999999
sVfinal
p213
I00
sa(dp214
Vto
p215
F14.92
sVconfidence
p216
F0.441
sVspeaker
p217
I0
sVfrom
p218
F14.67
sVfinal
p219
I00
sa(dp220
Vto
p221
F15
sVconfidence
p222
F0.441
sVspeaker
p223
I0
sVfrom
p224
F14.92
sVfinal
p225
I00
sa(dp226
Vto
p227
F15.59
sVconfidence
p228
F0.441
sVspeaker
p229
I0
sVfrom
p230
F15
sVfinal
p231
I00
sa(dp232
Vto
p233
F15.75
sVconfidence
p234
F0.441
sVspeaker
p235
I0
sVfrom
p236
F15.59
sVfinal
p237
I00
sa(dp238
Vto
p239
F15.949999999999999
sVconfidence
p240
F0.441
sVspeaker
p241
I0
sVfrom
p242
F15.75
sVfinal
p243
I00
sa(dp244
Vto
p245
F16.440000000000001
sVconfidence
p246
F0.441
sVspeaker
p247
I0
sVfrom
p248
F15.949999999999999
sVfinal
p249
I00
sa(dp250
Vto
p251
F17.949999999999999
sVconfidence
p252
F0.45200000000000001
sVspeaker
p253
I1
sVfrom
p254
F17.109999999999999
sVfinal
p255
I00
sa(dp256
Vto
p257
F18.600000000000001
sVconfidence
p258
F0.38200000000000001
sVspeaker
p259
I1
sVfrom
p260
F18.329999999999998
sVfinal
p261
I00
sa(dp262
Vto
p263
F18.789999999999999
sVconfidence
p264
F0.38200000000000001
sVspeaker
p265
I1
sVfrom
p266
F18.600000000000001
sVfinal
p267
I00
sa(dp268
Vto
p269
F18.989999999999998
sVconfidence
p270
F0.38200000000000001
sVspeaker
p271
I1
sVfrom
p272
F18.789999999999999
sVfinal
p273
I00
sa(dp274
Vto
p275
F19.059999999999999
sVconfidence
p276
F0.38200000000000001
sVspeaker
p277
I1
sVfrom
p278
F18.989999999999998
sVfinal
p279
I00
sa(dp280
Vto
p281
F19.41
sVconfidence
p282
F0.38200000000000001
sVspeaker
p283
I1
sVfrom
p284
F19.059999999999999
sVfinal
p285
I00
sa(dp286
Vto
p287
F19.789999999999999
sVconfidence
p288
F0.38200000000000001
sVspeaker
p289
I1
sVfrom
p290
F19.41
sVfinal
p291
I00
sa(dp292
Vto
p293
F20.18
sVconfidence
p294
F0.38200000000000001
sVspeaker
p295
I1
sVfrom
p296
F19.789999999999999
sVfinal
p297
I00
sa(dp298
Vto
p299
F20.620000000000001
sVconfidence
p300
F0.46200000000000002
sVspeaker
p301
I1
sVfrom
p302
F20.469999999999999
sVfinal
p303
I00
sa(dp304
Vto
p305
F20.879999999999999
sVconfidence
p306
F0.46200000000000002
sVspeaker
p307
I1
sVfrom
p308
F20.620000000000001
sVfinal
p309
I00
sa(dp310
Vto
p311
F21.02
sVconfidence
p312
F0.46200000000000002
sVspeaker
p313
I1
sVfrom
p314
F20.879999999999999
sVfinal
p315
I00
sa(dp316
Vto
p317
F21.210000000000001
sVconfidence
p318
F0.46200000000000002
sVspeaker
p319
I1
sVfrom
p320
F21.02
sVfinal
p321
I00
sa(dp322
Vto
p323
F21.289999999999999
sVconfidence
p324
F0.46200000000000002
sVspeaker
p325
I1
sVfrom
p326
F21.210000000000001
sVfinal
p327
I00
sa(dp328
Vto
p329
F21.850000000000001
sVconfidence
p330
F0.46200000000000002
sVspeaker
p331
I1
sVfrom
p332
F21.289999999999999
sVfinal
p333
I00
sa(dp334
Vto
p335
F22.100000000000001
sVconfidence
p336
F0.46200000000000002
sVspeaker
p337
I1
sVfrom
p338
F21.850000000000001
sVfinal
p339
I00
sa(dp340
Vto
p341
F22.399999999999999
sVconfidence
p342
F0.46200000000000002
sVspeaker
p343
I1
sVfrom
p344
F22.100000000000001
sVfinal
p345
I00
sa(dp346
Vto
p347
F22.52
sVconfidence
p348
F0.46200000000000002
sVspeaker
p349
I1
sVfrom
p350
F22.399999999999999
sVfinal
p351
I00
sa(dp352
Vto
p353
F22.699999999999999
sVconfidence
p354
F0.46200000000000002
sVspeaker
p355
I1
sVfrom
p356
F22.52
sVfinal
p357
I00
sa(dp358
Vto
p359
F23.109999999999999
sVconfidence
p360
F0.46200000000000002
sVspeaker
p361
I1
sVfrom
p362
F22.699999999999999
sVfinal
p363
I00
sa(dp364
Vto
p365
F24.050000000000001
sVconfidence
p366
F0.52300000000000002
sVspeaker
p367
I1
sVfrom
p368
F23.870000000000001
sVfinal
p369
I00
sa(dp370
Vto
p371
F24.18
sVconfidence
p372
F0.52300000000000002
sVspeaker
p373
I1
sVfrom
p374
F24.050000000000001
sVfinal
p375
I00
sa(dp376
Vto
p377
F24.780000000000001
sVconfidence
p378
F0.52300000000000002
sVspeaker
p379
I1
sVfrom
p380
F24.18
sVfinal
p381
I00
sa(dp382
Vto
p383
F25.190000000000001
sVconfidence
p384
F0.48399999999999999
sVspeaker
p385
I1
sVfrom
p386
F24.809999999999999
sVfinal
p387
I00
sa(dp388
Vto
p389
F25.539999999999999
sVconfidence
p390
F0.48399999999999999
sVspeaker
p391
I1
sVfrom
p392
F25.190000000000001
sVfinal
p393
I00
sa(dp394
Vto
p395
F25.890000000000001
sVconfidence
p396
F0.48399999999999999
sVspeaker
p397
I1
sVfrom
p398
F25.539999999999999
sVfinal
p399
I00
sa(dp400
Vto
p401
F26.59
sVconfidence
p402
F0.49099999999999999
sVspeaker
p403
I1
sVfrom
p404
F26.25
sVfinal
p405
I00
sa(dp406
Vto
p407
F27.140000000000001
sVconfidence
p408
F0.496
sVspeaker
p409
I1
sVfrom
p410
F26.620000000000001
sVfinal
p411
I00
sa(dp412
Vto
p413
F27.25
sVconfidence
p414
F0.496
sVspeaker
p415
I1
sVfrom
p416
F27.140000000000001
sVfinal
p417
I00
sa(dp418
Vto
p419
F27.460000000000001
sVconfidence
p420
F0.496
sVspeaker
p421
I1
sVfrom
p422
F27.25
sVfinal
p423
I00
sa(dp424
Vto
p425
F27.510000000000002
sVconfidence
p426
F0.496
sVspeaker
p427
I1
sVfrom
p428
F27.460000000000001
sVfinal
p429
I00
sa(dp430
Vto
p431
F27.789999999999999
sVconfidence
p432
F0.496
sVspeaker
p433
I1
sVfrom
p434
F27.510000000000002
sVfinal
p435
I00
sa(dp436
Vto
p437
F27.890000000000001
sVconfidence
p438
F0.496
sVspeaker
p439
I1
sVfrom
p440
F27.789999999999999
sVfinal
p441
I00
sa(dp442
Vto
p443
F28.359999999999999
sVconfidence
p444
F0.496
sVspeaker
p445
I1
sVfrom
p446
F27.890000000000001
sVfinal
p447
I00
sa(dp448
Vto
p449
F29.34
sVconfidence
p450
F0.56299999999999994
sVspeaker
p451
I1
sVfrom
p452
F29.109999999999999
sVfinal
p453
I00
sa(dp454
Vto
p455
F29.66
sVconfidence
p456
F0.56299999999999994
sVspeaker
p457
I1
sVfrom
p458
F29.34
sVfinal
p459
I00
sa(dp460
Vto
p461
F29.870000000000001
sVconfidence
p462
F0.56299999999999994
sVspeaker
p463
I1
sVfrom
p464
F29.66
sVfinal
p465
I00
sa(dp466
Vto
p467
F29.969999999999999
sVconfidence
p468
F0.56299999999999994
sVspeaker
p469
I1
sVfrom
p470
F29.870000000000001
sVfinal
p471
I00
sa(dp472
Vto
p473
F30.07
sVconfidence
p474
F0.56299999999999994
sVspeaker
p475
I1
sVfrom
p476
F29.969999999999999
sVfinal
p477
I00
sa(dp478
Vto
p479
F30.41
sVconfidence
p480
F0.56299999999999994
sVspeaker
p481
I1
sVfrom
p482
F30.07
sVfinal
p483
I00
sa(dp484
Vto
p485
F30.57
sVconfidence
p486
F0.56299999999999994
sVspeaker
p487
I1
sVfrom
p488
F30.41
sVfinal
p489
I00
sa(dp490
Vto
p491
F31.07
sVconfidence
p492
F0.56299999999999994
sVspeaker
p493
I1
sVfrom
p494
F30.57
sVfinal
p495
I00
sa(dp496
Vto
p497
F31.16
sVconfidence
p498
F0.56299999999999994
sVspeaker
p499
I1
sVfrom
p500
F31.07
sVfinal
p501
I00
sa(dp502
Vto
p503
F31.789999999999999
sVconfidence
p504
F0.56299999999999994
sVspeaker
p505
I1
sVfrom
p506
F31.16
sVfinal
p507
I00
sa(dp508
Vto
p509
F32.829999999999998
sVconfidence
p510
F0.44
sVspeaker
p511
I1
sVfrom
p512
F32.469999999999999
sVfinal
p513
I00
sa(dp514
Vto
p515
F33.100000000000001
sVconfidence
p516
F0.44
sVspeaker
p517
I1
sVfrom
p518
F32.829999999999998
sVfinal
p519
I00
sa(dp520
Vto
p521
F33.210000000000001
sVconfidence
p522
F0.44
sVspeaker
p523
I1
sVfrom
p524
F33.100000000000001
sVfinal
p525
I00
sa(dp526
Vto
p527
F33.420000000000002
sVconfidence
p528
F0.44
sVspeaker
p529
I1
sVfrom
p530
F33.210000000000001
sVfinal
p531
I00
sa(dp532
Vto
p533
F33.520000000000003
sVconfidence
p534
F0.44
sVspeaker
p535
I1
sVfrom
p536
F33.420000000000002
sVfinal
p537
I00
sa(dp538
Vto
p539
F33.780000000000001
sVconfidence
p540
F0.44
sVspeaker
p541
I1
sVfrom
p542
F33.520000000000003
sVfinal
p543
I00
sa(dp544
Vto
p545
F33.950000000000003
sVconfidence
p546
F0.44
sVspeaker
p547
I1
sVfrom
p548
F33.780000000000001
sVfinal
p549
I00
sa(dp550
Vto
p551
F34.350000000000001
sVconfidence
p552
F0.44
sVspeaker
p553
I1
sVfrom
p554
F33.950000000000003
sVfinal
p555
I00
sa(dp556
Vto
p557
F35.759999999999998
sVconfidence
p558
F0.497
sVspeaker
p559
I2
sVfrom
p560
F35.359999999999999
sVfinal
p561
I00
sa(dp562
Vto
p563
F35.960000000000001
sVconfidence
p564
F0.497
sVspeaker
p565
I2
sVfrom
p566
F35.759999999999998
sVfinal
p567
I00
sa(dp568
Vto
p569
F36.140000000000001
sVconfidence
p570
F0.497
sVspeaker
p571
I2
sVfrom
p572
F35.960000000000001
sVfinal
p573
I00
sa(dp574
Vto
p575
F36.539999999999999
sVconfidence
p576
F0.497
sVspeaker
p577
I2
sVfrom
p578
F36.140000000000001
sVfinal
p579
I00
sa(dp580
Vto
p581
F37.369999999999997
sVconfidence
p582
F0.497
sVspeaker
p583
I2
sVfrom
p584
F36.539999999999999
sVfinal
p585
I00
sa(dp586
Vto
p587
F37.82
sVconfidence
p588
F0.56999999999999995
sVspeaker
p589
I2
sVfrom
p590
F37.439999999999998
sVfinal
p591
I00
sa(dp592
Vto
p593
F38.189999999999998
sVconfidence
p594
F0.56999999999999995
sVspeaker
p595
I2
sVfrom
p596
F37.82
sVfinal
p597
I00
sa(dp598
Vto
p599
F38.549999999999997
sVconfidence
p600
F0.56999999999999995
sVspeaker
p601
I2
sVfrom
p602
F38.189999999999998
sVfinal
p603
I00
sa(dp604
Vto
p605
F38.670000000000002
sVconfidence
p606
F0.56999999999999995
sVspeaker
p607
I2
sVfrom
p608
F38.549999999999997
sVfinal
p609
I00
sa(dp610
Vto
p611
F38.840000000000003
sVconfidence
p612
F0.56999999999999995
sVspeaker
p613
I2
sVfrom
p614
F38.670000000000002
sVfinal
p615
I00
sa(dp616
Vto
p617
F39.100000000000001
sVconfidence
p618
F0.56999999999999995
sVspeaker
p619
I2
sVfrom
p620
F38.840000000000003
sVfinal
p621
I00
sa(dp622
Vto
p623
F39.859999999999999
sVconfidence
p624
F0.56999999999999995
sVspeaker
p625
I2
sVfrom
p626
F39.100000000000001
sVfinal
p627
I00
sa(dp628
Vto
p629
F40.57
sVconfidence
p630
F0.61099999999999999
sVspeaker
p631
I2
sVfrom
p632
F40.390000000000001
sVfinal
p633
I00
sa(dp634
Vto
p635
F40.950000000000003
sVconfidence
p636
F0.61099999999999999
sVspeaker
p637
I2
sVfrom
p638
F40.57
sVfinal
p639
I00
sa(dp640
Vto
p641
F41.479999999999997
sVconfidence
p642
F0.59999999999999998
sVspeaker
p643
I2
sVfrom
p644
F41.030000000000001
sVfinal
p645
I00
sa(dp646
Vto
p647
F41.640000000000001
sVconfidence
p648
F0.59999999999999998
sVspeaker
p649
I2
sVfrom
p650
F41.479999999999997
sVfinal
p651
I00
sa(dp652
Vto
p653
F41.909999999999997
sVconfidence
p654
F0.59999999999999998
sVspeaker
p655
I2
sVfrom
p656
F41.640000000000001
sVfinal
p657
I00
sa(dp658
Vto
p659
F42.289999999999999
sVconfidence
p660
F0.59999999999999998
sVspeaker
p661
I2
sVfrom
p662
F41.909999999999997
sVfinal
p663
I00
sa(dp664
Vto
p665
F42.649999999999999
sVconfidence
p666
F0.59999999999999998
sVspeaker
p667
I2
sVfrom
p668
F42.289999999999999
sVfinal
p669
I00
sa(dp670
Vto
p671
F43.100000000000001
sVconfidence
p672
F0.59999999999999998
sVspeaker
p673
I2
sVfrom
p674
F42.649999999999999
sVfinal
p675
I00
sa(dp676
Vto
p677
F43.439999999999998
sVconfidence
p678
F0.58299999999999996
sVspeaker
p679
I2
sVfrom
p680
F43.18
sVfinal
p681
I00
sa(dp682
Vto
p683
F43.990000000000002
sVconfidence
p684
F0.58299999999999996
sVspeaker
p685
I2
sVfrom
p686
F43.439999999999998
sVfinal
p687
I00
sa(dp688
Vto
p689
F44.109999999999999
sVconfidence
p690
F0.58299999999999996
sVspeaker
p691
I2
sVfrom
p692
F43.990000000000002
sVfinal
p693
I00
sa(dp694
Vto
p695
F44.200000000000003
sVconfidence
p696
F0.58299999999999996
sVspeaker
p697
I2
sVfrom
p698
F44.109999999999999
sVfinal
p699
I00
sa(dp700
Vto
p701
F44.869999999999997
sVconfidence
p702
F0.58299999999999996
sVspeaker
p703
I2
sVfrom
p704
F44.200000000000003
sVfinal
p705
I00
sa(dp706
Vto
p707
F45.75
sVconfidence
p708
F0.47699999999999998
sVspeaker
p709
I2
sVfrom
p710
F45.479999999999997
sVfinal
p711
I00
sa(dp712
Vto
p713
F45.899999999999999
sVconfidence
p714
F0.47699999999999998
sVspeaker
p715
I2
sVfrom
p716
F45.75
sVfinal
p717
I00
sa(dp718
Vto
p719
F46.439999999999998
sVconfidence
p720
F0.47699999999999998
sVspeaker
p721
I2
sVfrom
p722
F45.899999999999999
sVfinal
p723
I00
sa(dp724
Vto
p725
F46.719999999999999
sVconfidence
p726
F0.47699999999999998
sVspeaker
p727
I2
sVfrom
p728
F46.439999999999998
sVfinal
p729
I00
sa(dp730
Vto
p731
F47.030000000000001
sVconfidence
p732
F0.47699999999999998
sVspeaker
p733
I2
sVfrom
p734
F46.719999999999999
sVfinal
p735
I00
sa(dp736
Vto
p737
F47.409999999999997
sVconfidence
p738
F0.47699999999999998
sVspeaker
p739
I2
sVfrom
p740
F47.030000000000001
sVfinal
p741
I00
sa(dp742
Vto
p743
F47.960000000000001
sVconfidence
p744
F0.47699999999999998
sVspeaker
p745
I2
sVfrom
p746
F47.409999999999997
sVfinal
p747
I00
sa(dp748
Vto
p749
F48.579999999999998
sVconfidence
p750
F0.443
sVspeaker
p751
I2
sVfrom
p752
F48.240000000000002
sVfinal
p753
I00
sa(dp754
Vto
p755
F49
sVconfidence
p756
F0.46600000000000003
sVspeaker
p757
I2
sVfrom
p758
F48.609999999999999
sVfinal
p759
I00
sa(dp760
Vto
p761
F49.5
sVconfidence
p762
F0.46600000000000003
sVspeaker
p763
I2
sVfrom
p764
F49
sVfinal
p765
I00
sa(dp766
Vto
p767
F49.719999999999999
sVconfidence
p768
F0.46600000000000003
sVspeaker
p769
I2
sVfrom
p770
F49.5
sVfinal
p771
I00
sa(dp772
Vto
p773
F49.869999999999997
sVconfidence
p774
F0.46600000000000003
sVspeaker
p775
I2
sVfrom
p776
F49.719999999999999
sVfinal
p777
I00
sa(dp778
Vto
p779
F50.32
sVconfidence
p780
F0.46600000000000003
sVspeaker
p781
I2
sVfrom
p782
F49.869999999999997
sVfinal
p783
I00
sa(dp784
Vto
p785
F51.270000000000003
sVconfidence
p786
F0.49199999999999999
sVspeaker
p787
I2
sVfrom
p788
F50.780000000000001
sVfinal
p789
I00
sa(dp790
Vto
p791
F51.920000000000002
sVconfidence
p792
F0.49199999999999999
sVspeaker
p793
I2
sVfrom
p794
F51.270000000000003
sVfinal
p795
I00
sa(dp796
Vto
p797
F52.049999999999997
sVconfidence
p798
F0.49199999999999999
sVspeaker
p799
I2
sVfrom
p800
F51.920000000000002
sVfinal
p801
I00
sa(dp802
Vto
p803
F52.149999999999999
sVconfidence
p804
F0.49199999999999999
sVspeaker
p805
I2
sVfrom
p806
F52.049999999999997
sVfinal
p807
I00
sa(dp808
Vto
p809
F52.590000000000003
sVconfidence
p810
F0.49199999999999999
sVspeaker
p811
I2
sVfrom
p812
F52.149999999999999
sVfinal
p813
I00
sa(dp814
Vto
p815
F53.200000000000003
sVconfidence
p816
F0.45000000000000001
sVspeaker
p817
I2
sVfrom
p818
F52.859999999999999
sVfinal
p819
I00
sa(dp820
Vto
p821
F53.729999999999997
sVconfidence
p822
F0.45000000000000001
sVspeaker
p823
I2
sVfrom
p824
F53.200000000000003
sVfinal
p825
I00
sa(dp826
Vto
p827
F54.140000000000001
sVconfidence
p828
F0.45000000000000001
sVspeaker
p829
I2
sVfrom
p830
F53.729999999999997
sVfinal
p831
I00
sa(dp832
Vto
p833
F54.799999999999997
sVconfidence
p834
F0.45000000000000001
sVspeaker
p835
I2
sVfrom
p836
F54.140000000000001
sVfinal
p837
I00
sa(dp838
Vto
p839
F55.799999999999997
sVconfidence
p840
F0.49399999999999999
sVspeaker
p841
I2
sVfrom
p842
F55.590000000000003
sVfinal
p843
I00
sa(dp844
Vto
p845
F56.020000000000003
sVconfidence
p846
F0.49399999999999999
sVspeaker
p847
I2
sVfrom
p848
F55.799999999999997
sVfinal
p849
I00
sa(dp850
Vto
p851
F56.189999999999998
sVconfidence
p852
F0.49399999999999999
sVspeaker
p853
I2
sVfrom
p854
F56.020000000000003
sVfinal
p855
I00
sa(dp856
Vto
p857
F56.609999999999999
sVconfidence
p858
F0.49399999999999999
sVspeaker
p859
I2
sVfrom
p860
F56.189999999999998
sVfinal
p861
I00
sa(dp862
Vto
p863
F57.100000000000001
sVconfidence
p864
F0.49399999999999999
sVspeaker
p865
I2
sVfrom
p866
F56.609999999999999
sVfinal
p867
I00
sa(dp868
Vto
p869
F57.469999999999999
sVconfidence
p870
F0.49399999999999999
sVspeaker
p871
I2
sVfrom
p872
F57.100000000000001
sVfinal
p873
I00
sa(dp874
Vto
p875
F57.710000000000001
sVconfidence
p876
F0.49399999999999999
sVspeaker
p877
I2
sVfrom
p878
F57.469999999999999
sVfinal
p879
I00
sa(dp880
Vto
p881
F58.079999999999998
sVconfidence
p882
F0.49399999999999999
sVspeaker
p883
I2
sVfrom
p884
F57.710000000000001
sVfinal
p885
I00
sa(dp886
Vto
p887
F58.259999999999998
sVconfidence
p888
F0.49399999999999999
sVspeaker
p889
I2
sVfrom
p890
F58.079999999999998
sVfinal
p891
I00
sa(dp892
Vto
p893
F58.590000000000003
sVconfidence
p894
F0.39400000000000002
sVspeaker
p895
I2
sVfrom
p896
F58.289999999999999
sVfinal
p897
I00
sa(dp898
Vto
p899
F59.140000000000001
sVconfidence
p900
F0.39400000000000002
sVspeaker
p901
I2
sVfrom
p902
F58.590000000000003
sVfinal
p903
I00
sa(dp904
Vto
p905
F60.25
sVconfidence
p906
F0.48199999999999998
sVspeaker
p907
I0
sVfrom
p908
F59.979999999999997
sVfinal
p909
I00
sa(dp910
Vto
p911
F60.340000000000003
sVconfidence
p912
F0.48199999999999998
sVspeaker
p913
I0
sVfrom
p914
F60.25
sVfinal
p915
I00
sa(dp916
Vto
p917
F60.509999999999998
sVconfidence
p918
F0.48199999999999998
sVspeaker
p919
I0
sVfrom
p920
F60.340000000000003
sVfinal
p921
I00
sa(dp922
Vto
p923
F60.82
sVconfidence
p924
F0.48199999999999998
sVspeaker
p925
I0
sVfrom
p926
F60.509999999999998
sVfinal
p927
I00
sa(dp928
Vto
p929
F61.130000000000003
sVconfidence
p930
F0.48199999999999998
sVspeaker
p931
I0
sVfrom
p932
F60.82
sVfinal
p933
I00
sa(dp934
Vto
p935
F61.840000000000003
sVconfidence
p936
F0.48799999999999999
sVspeaker
p937
I0
sVfrom
p938
F61.600000000000001
sVfinal
p939
I00
sa(dp940
Vto
p941
F62.090000000000003
sVconfidence
p942
F0.48799999999999999
sVspeaker
p943
I0
sVfrom
p944
F61.840000000000003
sVfinal
p945
I00
sa(dp946
Vto
p947
F62.359999999999999
sVconfidence
p948
F0.48799999999999999
sVspeaker
p949
I0
sVfrom
p950
F62.090000000000003
sVfinal
p951
I00
sa(dp952
Vto
p953
F62.600000000000001
sVconfidence
p954
F0.48999999999999999
sVspeaker
p955
I0
sVfrom
p956
F62.390000000000001
sVfinal
p957
I00
sa(dp958
Vto
p959
F62.729999999999997
sVconfidence
p960
F0.48999999999999999
sVspeaker
p961
I0
sVfrom
p962
F62.600000000000001
sVfinal
p963
I00
sa(dp964
Vto
p965
F63.119999999999997
sVconfidence
p966
F0.48999999999999999
sVspeaker
p967
I0
sVfrom
p968
F62.729999999999997
sVfinal
p969
I00
sa(dp970
Vto
p971
F63.579999999999998
sVconfidence
p972
F0.48999999999999999
sVspeaker
p973
I0
sVfrom
p974
F63.119999999999997
sVfinal
p975
I00
sa(dp976
Vto
p977
F63.670000000000002
sVconfidence
p978
F0.48999999999999999
sVspeaker
p979
I0
sVfrom
p980
F63.579999999999998
sVfinal
p981
I00
sa(dp982
Vto
p983
F64.019999999999996
sVconfidence
p984
F0.48999999999999999
sVspeaker
p985
I0
sVfrom
p986
F63.670000000000002
sVfinal
p987
I00
sa(dp988
Vto
p989
F64.280000000000001
sVconfidence
p990
F0.48999999999999999
sVspeaker
p991
I0
sVfrom
p992
F64.019999999999996
sVfinal
p993
I00
sa(dp994
Vto
p995
F64.849999999999994
sVconfidence
p996
F0.48999999999999999
sVspeaker
p997
I0
sVfrom
p998
F64.280000000000001
sVfinal
p999
I00
sa(dp1000
Vto
p1001
F65.519999999999996
sVconfidence
p1002
F0.46000000000000002
sVspeaker
p1003
I0
sVfrom
p1004
F64.879999999999995
sVfinal
p1005
I00
sa(dp1006
Vto
p1007
F66.159999999999997
sVconfidence
p1008
F0.47499999999999998
sVspeaker
p1009
I0
sVfrom
p1010
F65.969999999999999
sVfinal
p1011
I00
sa(dp1012
Vto
p1013
F66.280000000000001
sVconfidence
p1014
F0.47499999999999998
sVspeaker
p1015
I0
sVfrom
p1016
F66.159999999999997
sVfinal
p1017
I00
sa(dp1018
Vto
p1019
F66.400000000000006
sVconfidence
p1020
F0.47499999999999998
sVspeaker
p1021
I0
sVfrom
p1022
F66.280000000000001
sVfinal
p1023
I00
sa(dp1024
Vto
p1025
F66.75
sVconfidence
p1026
F0.47499999999999998
sVspeaker
p1027
I0
sVfrom
p1028
F66.400000000000006
sVfinal
p1029
I00
sa(dp1030
Vto
p1031
F67.540000000000006
sVconfidence
p1032
F0.47499999999999998
sVspeaker
p1033
I0
sVfrom
p1034
F66.75
sVfinal
p1035
I00
sa(dp1036
Vto
p1037
F67.739999999999995
sVconfidence
p1038
F0.49299999999999999
sVspeaker
p1039
I0
sVfrom
p1040
F67.569999999999993
sVfinal
p1041
I00
sa(dp1042
Vto
p1043
F68.090000000000003
sVconfidence
p1044
F0.49299999999999999
sVspeaker
p1045
I0
sVfrom
p1046
F67.739999999999995
sVfinal
p1047
I00
sa(dp1048
Vto
p1049
F68.510000000000005
sVconfidence
p1050
F0.49299999999999999
sVspeaker
p1051
I0
sVfrom
p1052
F68.090000000000003
sVfinal
p1053
I00
sa(dp1054
Vto
p1055
F68.909999999999997
sVconfidence
p1056
F0.49299999999999999
sVspeaker
p1057
I0
sVfrom
p1058
F68.510000000000005
sVfinal
p1059
I00
sa(dp1060
Vto
p1061
F69.379999999999995
sVconfidence
p1062
F0.49299999999999999
sVspeaker
p1063
I0
sVfrom
p1064
F68.909999999999997
sVfinal
p1065
I00
sa(dp1066
Vto
p1067
F70.859999999999999
sVconfidence
p1068
F0.39900000000000002
sVspeaker
p1069
I1
sVfrom
p1070
F70.310000000000002
sVfinal
p1071
I00
sa(dp1072
Vto
p1073
F71.469999999999999
sVconfidence
p1074
F0.5
sVspeaker
p1075
I1
sVfrom
p1076
F71.230000000000004
sVfinal
p1077
I00
sa(dp1078
Vto
p1079
F71.969999999999999
sVconfidence
p1080
F0.5
sVspeaker
p1081
I1
sVfrom
p1082
F71.469999999999999
sVfinal
p1083
I00
sa(dp1084
Vto
p1085
F72.140000000000001
sVconfidence
p1086
F0.5
sVspeaker
p1087
I1
sVfrom
p1088
F71.969999999999999
sVfinal
p1089
I00
sa(dp1090
Vto
p1091
F72.459999999999994
sVconfidence
p1092
F0.5
sVspeaker
p1093
I1
sVfrom
p1094
F72.140000000000001
sVfinal
p1095
I00
sa(dp1096
Vto
p1097
F72.870000000000005
sVconfidence
p1098
F0.5
sVspeaker
p1099
I1
sVfrom
p1100
F72.459999999999994
sVfinal
p1101
I00
sa(dp1102
Vto
p1103
F73.170000000000002
sVconfidence
p1104
F0.5
sVspeaker
p1105
I1
sVfrom
p1106
F72.870000000000005
sVfinal
p1107
I00
sa(dp1108
Vto
p1109
F73.620000000000005
sVconfidence
p1110
F0.5
sVspeaker
p1111
I1
sVfrom
p1112
F73.170000000000002
sVfinal
p1113
I00
sa(dp1114
Vto
p1115
F73.739999999999995
sVconfidence
p1116
F0.5
sVspeaker
p1117
I1
sVfrom
p1118
F73.620000000000005
sVfinal
p1119
I00
sa(dp1120
Vto
p1121
F73.890000000000001
sVconfidence
p1122
F0.5
sVspeaker
p1123
I1
sVfrom
p1124
F73.739999999999995
sVfinal
p1125
I00
sa(dp1126
Vto
p1127
F74.439999999999998
sVconfidence
p1128
F0.5
sVspeaker
p1129
I1
sVfrom
p1130
F73.890000000000001
sVfinal
p1131
I00
sa(dp1132
Vto
p1133
F75.230000000000004
sVconfidence
p1134
F0.48499999999999999
sVspeaker
p1135
I1
sVfrom
p1136
F75.069999999999993
sVfinal
p1137
I00
sa(dp1138
Vto
p1139
F75.560000000000002
sVconfidence
p1140
F0.48499999999999999
sVspeaker
p1141
I1
sVfrom
p1142
F75.230000000000004
sVfinal
p1143
I00
sa(dp1144
Vto
p1145
F75.959999999999994
sVconfidence
p1146
F0.48499999999999999
sVspeaker
p1147
I1
sVfrom
p1148
F75.560000000000002
sVfinal
p1149
I00
sa(dp1150
Vto
p1151
F76.010000000000005
sVconfidence
p1152
F0.48499999999999999
sVspeaker
p1153
I1
sVfrom
p1154
F75.959999999999994
sVfinal
p1155
I00
sa(dp1156
Vto
p1157
F76.349999999999994
sVconfidence
p1158
F0.48499999999999999
sVspeaker
p1159
I1
sVfrom
p1160
F76.010000000000005
sVfinal
p1161
I00
sa(dp1162
Vto
p1163
F76.450000000000003
sVconfidence
p1164
F0.48499999999999999
sVspeaker
p1165
I1
sVfrom
p1166
F76.349999999999994
sVfinal
p1167
I00
sa(dp1168
Vto
p1169
F76.769999999999996
sVconfidence
p1170
F0.48499999999999999
sVspeaker
p1171
I1
sVfrom
p1172
F76.450000000000003
sVfinal
p1173
I00
sa(dp1174
Vto
p1175
F77.069999999999993
sVconfidence
p1176
F0.48499999999999999
sVspeaker
p1177
I1
sVfrom
p1178
F76.769999999999996
sVfinal
p1179
I00
sa(dp1180
Vto
p1181
F77.159999999999997
sVconfidence
p1182
F0.48499999999999999
sVspeaker
p1183
I1
sVfrom
p1184
F77.069999999999993
sVfinal
p1185
I00
sa(dp1186
Vto
p1187
F77.659999999999997
sVconfidence
p1188
F0.48499999999999999
sVspeaker
p1189
I1
sVfrom
p1190
F77.159999999999997
sVfinal
p1191
I00
sa(dp1192
Vto
p1193
F78.069999999999993
sVconfidence
p1194
F0.40300000000000002
sVspeaker
p1195
I1
sVfrom
p1196
F77.930000000000007
sVfinal
p1197
I00
sa(dp1198
Vto
p1199
F78.189999999999998
sVconfidence
p1200
F0.40300000000000002
sVspeaker
p1201
I1
sVfrom
p1202
F78.069999999999993
sVfinal
p1203
I00
sa(dp1204
Vto
p1205
F78.439999999999998
sVconfidence
p1206
F0.40300000000000002
sVspeaker
p1207
I1
sVfrom
p1208
F78.189999999999998
sVfinal
p1209
I00
sa(dp1210
Vto
p1211
F78.480000000000004
sVconfidence
p1212
F0.40300000000000002
sVspeaker
p1213
I1
sVfrom
p1214
F78.439999999999998
sVfinal
p1215
I00
sa(dp1216
Vto
p1217
F78.959999999999994
sVconfidence
p1218
F0.40300000000000002
sVspeaker
p1219
I1
sVfrom
p1220
F78.480000000000004
sVfinal
p1221
I00
sa(dp1222
Vto
p1223
F79.920000000000002
sVconfidence
p1224
F0.45800000000000002
sVspeaker
p1225
I2
sVfrom
p1226
F79.590000000000003
sVfinal
p1227
I00
sa(dp1228
Vto
p1229
F80.430000000000007
sVconfidence
p1230
F0.45800000000000002
sVspeaker
p1231
I2
sVfrom
p1232
F79.920000000000002
sVfinal
p1233
I00
sa(dp1234
Vto
p1235
F81.120000000000005
sVconfidence
p1236
F0.44900000000000001
sVspeaker
p1237
I1
sVfrom
p1238
F80.920000000000002
sVfinal
p1239
I00
sa(dp1240
Vto
p1241
F81.569999999999993
sVconfidence
p1242
F0.44900000000000001
sVspeaker
p1243
I1
sVfrom
p1244
F81.120000000000005
sVfinal
p1245
I00
sa(dp1246
Vto
p1247
F82.109999999999999
sVconfidence
p1248
F0.45900000000000002
sVspeaker
p1249
I1
sVfrom
p1250
F81.769999999999996
sVfinal
p1251
I00
sa(dp1252
Vto
p1253
F82.430000000000007
sVconfidence
p1254
F0.45900000000000002
sVspeaker
p1255
I1
sVfrom
p1256
F82.109999999999999
sVfinal
p1257
I00
sa(dp1258
Vto
p1259
F82.930000000000007
sVconfidence
p1260
F0.45900000000000002
sVspeaker
p1261
I1
sVfrom
p1262
F82.430000000000007
sVfinal
p1263
I00
sa(dp1264
Vto
p1265
F83.120000000000005
sVconfidence
p1266
F0.45900000000000002
sVspeaker
p1267
I1
sVfrom
p1268
F82.930000000000007
sVfinal
p1269
I00
sa(dp1270
Vto
p1271
F83.319999999999993
sVconfidence
p1272
F0.45900000000000002
sVspeaker
p1273
I1
sVfrom
p1274
F83.120000000000005
sVfinal
p1275
I00
sa(dp1276
Vto
p1277
F83.420000000000002
sVconfidence
p1278
F0.45900000000000002
sVspeaker
p1279
I1
sVfrom
p1280
F83.319999999999993
sVfinal
p1281
I00
sa(dp1282
Vto
p1283
F83.689999999999998
sVconfidence
p1284
F0.45900000000000002
sVspeaker
p1285
I1
sVfrom
p1286
F83.420000000000002
sVfinal
p1287
I00
sa(dp1288
Vto
p1289
F83.819999999999993
sVconfidence
p1290
F0.45900000000000002
sVspeaker
p1291
I1
sVfrom
p1292
F83.689999999999998
sVfinal
p1293
I00
sa(dp1294
Vto
p1295
F84
sVconfidence
p1296
F0.45900000000000002
sVspeaker
p1297
I1
sVfrom
p1298
F83.819999999999993
sVfinal
p1299
I00
sa(dp1300
Vto
p1301
F84.489999999999995
sVconfidence
p1302
F0.45900000000000002
sVspeaker
p1303
I1
sVfrom
p1304
F84
sVfinal
p1305
I00
sa(dp1306
Vto
p1307
F85.120000000000005
sVconfidence
p1308
F0.52300000000000002
sVspeaker
p1309
I1
sVfrom
p1310
F84.890000000000001
sVfinal
p1311
I00
sa(dp1312
Vto
p1313
F85.390000000000001
sVconfidence
p1314
F0.52300000000000002
sVspeaker
p1315
I1
sVfrom
p1316
F85.120000000000005
sVfinal
p1317
I00
sa(dp1318
Vto
p1319
F85.489999999999995
sVconfidence
p1320
F0.52300000000000002
sVspeaker
p1321
I1
sVfrom
p1322
F85.390000000000001
sVfinal
p1323
I00
sa(dp1324
Vto
p1325
F85.730000000000004
sVconfidence
p1326
F0.52300000000000002
sVspeaker
p1327
I1
sVfrom
p1328
F85.489999999999995
sVfinal
p1329
I00
sa(dp1330
Vto
p1331
F86.090000000000003
sVconfidence
p1332
F0.52300000000000002
sVspeaker
p1333
I1
sVfrom
p1334
F85.730000000000004
sVfinal
p1335
I00
sa(dp1336
Vto
p1337
F86.349999999999994
sVconfidence
p1338
F0.52300000000000002
sVspeaker
p1339
I1
sVfrom
p1340
F86.090000000000003
sVfinal
p1341
I00
sa(dp1342
Vto
p1343
F86.629999999999995
sVconfidence
p1344
F0.52300000000000002
sVspeaker
p1345
I1
sVfrom
p1346
F86.349999999999994
sVfinal
p1347
I00
sa(dp1348
Vto
p1349
F86.799999999999997
sVconfidence
p1350
F0.52300000000000002
sVspeaker
p1351
I1
sVfrom
p1352
F86.629999999999995
sVfinal
p1353
I00
sa(dp1354
Vto
p1355
F87.939999999999998
sVconfidence
p1356
F0.45500000000000002
sVspeaker
p1357
I2
sVfrom
p1358
F87.549999999999997
sVfinal
p1359
I00
sa(dp1360
Vto
p1361
F88.640000000000001
sVconfidence
p1362
F0.45700000000000002
sVspeaker
p1363
I2
sVfrom
p1364
F88.079999999999998
sVfinal
p1365
I00
sa(dp1366
Vto
p1367
F88.900000000000006
sVconfidence
p1368
F0.432
sVspeaker
p1369
I2
sVfrom
p1370
F88.670000000000002
sVfinal
p1371
I00
sa(dp1372
Vto
p1373
F89.299999999999997
sVconfidence
p1374
F0.432
sVspeaker
p1375
I2
sVfrom
p1376
F88.900000000000006
sVfinal
p1377
I00
sa(dp1378
Vto
p1379
F90.260000000000005
sVconfidence
p1380
F0.48699999999999999
sVspeaker
p1381
I2
sVfrom
p1382
F89.969999999999999
sVfinal
p1383
I00
sa(dp1384
Vto
p1385
F90.739999999999995
sVconfidence
p1386
F0.48699999999999999
sVspeaker
p1387
I2
sVfrom
p1388
F90.260000000000005
sVfinal
p1389
I00
sa(dp1390
Vto
p1391
F90.950000000000003
sVconfidence
p1392
F0.48699999999999999
sVspeaker
p1393
I2
sVfrom
p1394
F90.739999999999995
sVfinal
p1395
I00
sa(dp1396
Vto
p1397
F91.200000000000003
sVconfidence
p1398
F0.48699999999999999
sVspeaker
p1399
I2
sVfrom
p1400
F90.950000000000003
sVfinal
p1401
I00
sa(dp1402
Vto
p1403
F91.269999999999996
sVconfidence
p1404
F0.48699999999999999
sVspeaker
p1405
I2
sVfrom
p1406
F91.200000000000003
sVfinal
p1407
I00
sa(dp1408
Vto
p1409
F91.829999999999998
sVconfidence
p1410
F0.48699999999999999
sVspeaker
p1411
I2
sVfrom
p1412
F91.269999999999996
sVfinal
p1413
I00
sa(dp1414
Vto
p1415
F91.969999999999999
sVconfidence
p1416
F0.48699999999999999
sVspeaker
p1417
I2
sVfrom
p1418
F91.829999999999998
sVfinal
p1419
I00
sa(dp1420
Vto
p1421
F92.25
sVconfidence
p1422
F0.48699999999999999
sVspeaker
p1423
I2
sVfrom
p1424
F91.969999999999999
sVfinal
p1425
I00
sa(dp1426
Vto
p1427
F92.790000000000006
sVconfidence
p1428
F0.48699999999999999
sVspeaker
p1429
I2
sVfrom
p1430
F92.25
sVfinal
p1431
I00
sa(dp1432
Vto
p1433
F93.459999999999994
sVconfidence
p1434
F0.40600000000000003
sVspeaker
p1435
I2
sVfrom
p1436
F93
sVfinal
p1437
I00
sa(dp1438
Vto
p1439
F93.680000000000007
sVconfidence
p1440
F0.49299999999999999
sVspeaker
p1441
I2
sVfrom
p1442
F93.489999999999995
sVfinal
p1443
I00
sa(dp1444
Vto
p1445
F93.930000000000007
sVconfidence
p1446
F0.49299999999999999
sVspeaker
p1447
I2
sVfrom
p1448
F93.680000000000007
sVfinal
p1449
I00
sa(dp1450
Vto
p1451
F94.069999999999993
sVconfidence
p1452
F0.49299999999999999
sVspeaker
p1453
I2
sVfrom
p1454
F93.930000000000007
sVfinal
p1455
I00
sa(dp1456
Vto
p1457
F94.180000000000007
sVconfidence
p1458
F0.49299999999999999
sVspeaker
p1459
I2
sVfrom
p1460
F94.069999999999993
sVfinal
p1461
I00
sa(dp1462
Vto
p1463
F94.450000000000003
sVconfidence
p1464
F0.49299999999999999
sVspeaker
p1465
I2
sVfrom
p1466
F94.180000000000007
sVfinal
p1467
I00
sa(dp1468
Vto
p1469
F94.980000000000004
sVconfidence
p1470
F0.49299999999999999
sVspeaker
p1471
I2
sVfrom
p1472
F94.450000000000003
sVfinal
p1473
I00
sa(dp1474
Vto
p1475
F95.170000000000002
sVconfidence
p1476
F0.49299999999999999
sVspeaker
p1477
I2
sVfrom
p1478
F94.980000000000004
sVfinal
p1479
I00
sa(dp1480
Vto
p1481
F95.730000000000004
sVconfidence
p1482
F0.49299999999999999
sVspeaker
p1483
I2
sVfrom
p1484
F95.170000000000002
sVfinal
p1485
I00
sa(dp1486
Vto
p1487
F96.060000000000002
sVconfidence
p1488
F0.49299999999999999
sVspeaker
p1489
I2
sVfrom
p1490
F95.730000000000004
sVfinal
p1491
I00
sa(dp1492
Vto
p1493
F96.140000000000001
sVconfidence
p1494
F0.49299999999999999
sVspeaker
p1495
I2
sVfrom
p1496
F96.060000000000002
sVfinal
p1497
I00
sa(dp1498
Vto
p1499
F96.599999999999994
sVconfidence
p1500
F0.49299999999999999
sVspeaker
p1501
I2
sVfrom
p1502
F96.140000000000001
sVfinal
p1503
I00
sa(dp1504
Vto
p1505
F96.980000000000004
sVconfidence
p1506
F0.49099999999999999
sVspeaker
p1507
I2
sVfrom
p1508
F96.760000000000005
sVfinal
p1509
I00
sa(dp1510
Vto
p1511
F97.349999999999994
sVconfidence
p1512
F0.49099999999999999
sVspeaker
p1513
I2
sVfrom
p1514
F96.980000000000004
sVfinal
p1515
I00
sa(dp1516
Vto
p1517
F98.569999999999993
sVconfidence
p1518
F0.47299999999999998
sVspeaker
p1519
I0
sVfrom
p1520
F98.310000000000002
sVfinal
p1521
I00
sa(dp1522
Vto
p1523
F99.010000000000005
sVconfidence
p1524
F0.47299999999999998
sVspeaker
p1525
I0
sVfrom
p1526
F98.569999999999993
sVfinal
p1527
I00
sa(dp1528
Vto
p1529
F99.390000000000001
sVconfidence
p1530
F0.47299999999999998
sVspeaker
p1531
I0
sVfrom
p1532
F99.010000000000005
sVfinal
p1533
I00
sa(dp1534
Vto
p1535
F99.510000000000005
sVconfidence
p1536
F0.47299999999999998
sVspeaker
p1537
I0
sVfrom
p1538
F99.390000000000001
sVfinal
p1539
I00
sa(dp1540
Vto
p1541
F99.790000000000006
sVconfidence
p1542
F0.47299999999999998
sVspeaker
p1543
I0
sVfrom
p1544
F99.510000000000005
sVfinal
p1545
I00
sa(dp1546
Vto
p1547
F99.969999999999999
sVconfidence
p1548
F0.47299999999999998
sVspeaker
p1549
I0
sVfrom
p1550
F99.790000000000006
sVfinal
p1551
I00
sa(dp1552
Vto
p1553
F100.06999999999999
sVconfidence
p1554
F0.47299999999999998
sVspeaker
p1555
I0
sVfrom
p1556
F99.969999999999999
sVfinal
p1557
I00
sa(dp1558
Vto
p1559
F100.14
sVconfidence
p1560
F0.47299999999999998
sVspeaker
p1561
I0
sVfrom
p1562
F100.06999999999999
sVfinal
p1563
I00
sa(dp1564
Vto
p1565
F100.70999999999999
sVconfidence
p1566
F0.47299999999999998
sVspeaker
p1567
I0
sVfrom
p1568
F100.14
sVfinal
p1569
I00
sa(dp1570
Vto
p1571
F101.79000000000001
sVconfidence
p1572
F0.38100000000000001
sVspeaker
p1573
I1
sVfrom
p1574
F101.28
sVfinal
p1575
I00
sa(dp1576
Vto
p1577
F102.3
sVconfidence
p1578
F0.49099999999999999
sVspeaker
p1579
I1
sVfrom
p1580
F102.16
sVfinal
p1581
I00
sa(dp1582
Vto
p1583
F102.39
sVconfidence
p1584
F0.49099999999999999
sVspeaker
p1585
I1
sVfrom
p1586
F102.3
sVfinal
p1587
I00
sa(dp1588
Vto
p1589
F102.68000000000001
sVconfidence
p1590
F0.49099999999999999
sVspeaker
p1591
I1
sVfrom
p1592
F102.39
sVfinal
p1593
I00
sa(dp1594
Vto
p1595
F102.83
sVconfidence
p1596
F0.49099999999999999
sVspeaker
p1597
I1
sVfrom
p1598
F102.68000000000001
sVfinal
p1599
I00
sa(dp1600
Vto
p1601
F103.64
sVconfidence
p1602
F0.49099999999999999
sVspeaker
p1603
I1
sVfrom
p1604
F102.83
sVfinal
p1605
I00
sa(dp1606
Vto
p1607
F104.20999999999999
sVconfidence
p1608
F0.49099999999999999
sVspeaker
p1609
I1
sVfrom
p1610
F103.64
sVfinal
p1611
I00
sa(dp1612
Vto
p1613
F104.36
sVconfidence
p1614
F0.49099999999999999
sVspeaker
p1615
I1
sVfrom
p1616
F104.20999999999999
sVfinal
p1617
I00
sa(dp1618
Vto
p1619
F104.65000000000001
sVconfidence
p1620
F0.50900000000000001
sVspeaker
p1621
I1
sVfrom
p1622
F104.39
sVfinal
p1623
I00
sa(dp1624
Vto
p1625
F104.75
sVconfidence
p1626
F0.50900000000000001
sVspeaker
p1627
I1
sVfrom
p1628
F104.65000000000001
sVfinal
p1629
I00
sa(dp1630
Vto
p1631
F105.22
sVconfidence
p1632
F0.50900000000000001
sVspeaker
p1633
I1
sVfrom
p1634
F104.75
sVfinal
p1635
I00
sa(dp1636
Vto
p1637
F105.54000000000001
sVconfidence
p1638
F0.50900000000000001
sVspeaker
p1639
I1
sVfrom
p1640
F105.22
sVfinal
p1641
I00
sa(dp1642
Vto
p1643
F105.94
sVconfidence
p1644
F0.50900000000000001
sVspeaker
p1645
I1
sVfrom
p1646
F105.54000000000001
sVfinal
p1647
I00
sa(dp1648
Vto
p1649
F106.01000000000001
sVconfidence
p1650
F0.50900000000000001
sVspeaker
p1651
I1
sVfrom
p1652
F105.94
sVfinal
p1653
I00
sa(dp1654
Vto
p1655
F106.08
sVconfidence
p1656
F0.50900000000000001
sVspeaker
p1657
I1
sVfrom
p1658
F106.01000000000001
sVfinal
p1659
I00
sa(dp1660
Vto
p1661
F106.51000000000001
sVconfidence
p1662
F0.50900000000000001
sVspeaker
p1663
I1
sVfrom
p1664
F106.08
sVfinal
p1665
I00
sa(dp1666
Vto
p1667
F107.01000000000001
sVconfidence
p1668
F0.50900000000000001
sVspeaker
p1669
I1
sVfrom
p1670
F106.51000000000001
sVfinal
p1671
I00
sa(dp1672
Vto
p1673
F107.72
sVconfidence
p1674
F0.47799999999999998
sVspeaker
p1675
I1
sVfrom
p1676
F107.53
sVfinal
p1677
I00
sa(dp1678
Vto
p1679
F108.01000000000001
sVconfidence
p1680
F0.47799999999999998
sVspeaker
p1681
I1
sVfrom
p1682
F107.72
sVfinal
p1683
I00
sa(dp1684
Vto
p1685
F108.23999999999999
sVconfidence
p1686
F0.47799999999999998
sVspeaker
p1687
I1
sVfrom
p1688
F108.01000000000001
sVfinal
p1689
I00
sa(dp1690
Vto
p1691
F108.34999999999999
sVconfidence
p1692
F0.47799999999999998
sVspeaker
p1693
I1
sVfrom
p1694
F108.23999999999999
sVfinal
p1695
I00
sa(dp1696
Vto
p1697
F108.77
sVconfidence
p1698
F0.47799999999999998
sVspeaker
p1699
I1
sVfrom
p1700
F108.34999999999999
sVfinal
p1701
I00
sa(dp1702
Vto
p1703
F108.89
sVconfidence
p1704
F0.47799999999999998
sVspeaker
p1705
I1
sVfrom
p1706
F108.77
sVfinal
p1707
I00
sa(dp1708
Vto
p1709
F109.42
sVconfidence
p1710
F0.47799999999999998
sVspeaker
p1711
I1
sVfrom
p1712
F108.89
sVfinal
p1713
I00
sa(dp1714
Vto
p1715
F109.52
sVconfidence
p1716
F0.47799999999999998
sVspeaker
p1717
I1
sVfrom
p1718
F109.42
sVfinal
p1719
I00
sa(dp1720
Vto
p1721
F109.90000000000001
sVconfidence
p1722
F0.47799999999999998
sVspeaker
p1723
I1
sVfrom
p1724
F109.52
sVfinal
p1725
I00
sa(dp1726
Vto
p1727
F110.66
sVconfidence
p1728
F0.47799999999999998
sVspeaker
p1729
I1
sVfrom
p1730
F109.90000000000001
sVfinal
p1731
I00
sa(dp1732
Vto
p1733
F111.22
sVconfidence
p1734
F0.52200000000000002
sVspeaker
p1735
I1
sVfrom
p1736
F111.06999999999999
sVfinal
p1737
I00
sa(dp1738
Vto
p1739
F111.34
sVconfidence
p1740
F0.52200000000000002
sVspeaker
p1741
I1
sVfrom
p1742
F111.22
sVfinal
p1743
I00
sa(dp1744
Vto
p1745
F111.59
sVconfidence
p1746
F0.52200000000000002
sVspeaker
p1747
I1
sVfrom
p1748
F111.34
sVfinal
p1749
I00
sa(dp1750
Vto
p1751
F111.7
sVconfidence
p1752
F0.52200000000000002
sVspeaker
p1753
I1
sVfrom
p1754
F111.59
sVfinal
p1755
I00
sa(dp1756
Vto
p1757
F112.04000000000001
sVconfidence
p1758
F0.52200000000000002
sVspeaker
p1759
I1
sVfrom
p1760
F111.7
sVfinal
p1761
I00
sa(dp1762
Vto
p1763
F112.25
sVconfidence
p1764
F0.52200000000000002
sVspeaker
p1765
I1
sVfrom
p1766
F112.04000000000001
sVfinal
p1767
I00
sa(dp1768
Vto
p1769
F112.34999999999999
sVconfidence
p1770
F0.52200000000000002
sVspeaker
p1771
I1
sVfrom
p1772
F112.25
sVfinal
p1773
I00
sa(dp1774
Vto
p1775
F112.47
sVconfidence
p1776
F0.52200000000000002
sVspeaker
p1777
I1
sVfrom
p1778
F112.34999999999999
sVfinal
p1779
I00
sa(dp1780
Vto
p1781
F113.04000000000001
sVconfidence
p1782
F0.52200000000000002
sVspeaker
p1783
I1
sVfrom
p1784
F112.47
sVfinal
p1785
I00
sa(dp1786
Vto
p1787
F113.17
sVconfidence
p1788
F0.52200000000000002
sVspeaker
p1789
I1
sVfrom
p1790
F113.04000000000001
sVfinal
p1791
I00
sa(dp1792
Vto
p1793
F113.86
sVconfidence
p1794
F0.52200000000000002
sVspeaker
p1795
I1
sVfrom
p1796
F113.17
sVfinal
p1797
I00
sa(dp1798
Vto
p1799
F114.73999999999999
sVconfidence
p1800
F0.46500000000000002
sVspeaker
p1801
I2
sVfrom
p1802
F114.48
sVfinal
p1803
I00
sa(dp1804
Vto
p1805
F115.19
sVconfidence
p1806
F0.46500000000000002
sVspeaker
p1807
I2
sVfrom
p1808
F114.73999999999999
sVfinal
p1809
I00
sa(dp1810
Vto
p1811
F116.13
sVconfidence
p1812
F0.46000000000000002
sVspeaker
p1813
I1
sVfrom
p1814
F115.90000000000001
sVfinal
p1815
I00
sa(dp1816
Vto
p1817
F116.34
sVconfidence
p1818
F0.46000000000000002
sVspeaker
p1819
I1
sVfrom
p1820
F116.13
sVfinal
p1821
I00
sa(dp1822
Vto
p1823
F116.53
sVconfidence
p1824
F0.46000000000000002
sVspeaker
p1825
I1
sVfrom
p1826
F116.34
sVfinal
p1827
I00
sa(dp1828
Vto
p1829
F116.64
sVconfidence
p1830
F0.46000000000000002
sVspeaker
p1831
I1
sVfrom
p1832
F116.53
sVfinal
p1833
I00
sa(dp1834
Vto
p1835
F117.05
sVconfidence
p1836
F0.46000000000000002
sVspeaker
p1837
I1
sVfrom
p1838
F116.64
sVfinal
p1839
I00
sa(dp1840
Vto
p1841
F117.2
sVconfidence
p1842
F0.46000000000000002
sVspeaker
p1843
I1
sVfrom
p1844
F117.05
sVfinal
p1845
I00
sa(dp1846
Vto
p1847
F117.34
sVconfidence
p1848
F0.46000000000000002
sVspeaker
p1849
I1
sVfrom
p1850
F117.2
sVfinal
p1851
I00
sa(dp1852
Vto
p1853
F117.47
sVconfidence
p1854
F0.46000000000000002
sVspeaker
p1855
I1
sVfrom
p1856
F117.34
sVfinal
p1857
I00
sa(dp1858
Vto
p1859
F117.84999999999999
sVconfidence
p1860
F0.46000000000000002
sVspeaker
p1861
I1
sVfrom
p1862
F117.47
sVfinal
p1863
I00
sa(dp1864
Vto
p1865
F118.14
sVconfidence
p1866
F0.46000000000000002
sVspeaker
p1867
I1
sVfrom
p1868
F117.84999999999999
sVfinal
p1869
I00
sa(dp1870
Vto
p1871
F118.36
sVconfidence
p1872
F0.46000000000000002
sVspeaker
p1873
I1
sVfrom
p1874
F118.14
sVfinal
p1875
I00
sa(dp1876
Vto
p1877
F118.93000000000001
sVconfidence
p1878
F0.46000000000000002
sVspeaker
p1879
I1
sVfrom
p1880
F118.36
sVfinal
p1881
I00
sa(dp1882
Vto
p1883
F119.45999999999999
sVconfidence
p1884
F0.49099999999999999
sVspeaker
p1885
I1
sVfrom
p1886
F119.22
sVfinal
p1887
I00
sa(dp1888
Vto
p1889
F119.68000000000001
sVconfidence
p1890
F0.49099999999999999
sVspeaker
p1891
I1
sVfrom
p1892
F119.45999999999999
sVfinal
p1893
I00
sa(dp1894
Vto
p1895
F119.84999999999999
sVconfidence
p1896
F0.49099999999999999
sVspeaker
p1897
I1
sVfrom
p1898
F119.68000000000001
sVfinal
p1899
I00
sa(dp1900
Vto
p1901
F120.31
sVconfidence
p1902
F0.49099999999999999
sVspeaker
p1903
I1
sVfrom
p1904
F119.84999999999999
sVfinal
p1905
I00
sa(dp1906
Vto
p1907
F120.40000000000001
sVconfidence
p1908
F0.49099999999999999
sVspeaker
p1909
I1
sVfrom
p1910
F120.31
sVfinal
p1911
I00
sa(dp1912
Vto
p1913
F120.48999999999999
sVconfidence
p1914
F0.49099999999999999
sVspeaker
p1915
I1
sVfrom
p1916
F120.40000000000001
sVfinal
p1917
I00
sa(dp1918
Vto
p1919
F121.19
sVconfidence
p1920
F0.49099999999999999
sVspeaker
p1921
I1
sVfrom
p1922
F120.48999999999999
sVfinal
p1923
I00
sa(dp1924
Vto
p1925
F121.3
sVconfidence
p1926
F0.49099999999999999
sVspeaker
p1927
I1
sVfrom
p1928
F121.19
sVfinal
p1929
I00
sa(dp1930
Vto
p1931
F121.41
sVconfidence
p1932
F0.49099999999999999
sVspeaker
p1933
I1
sVfrom
p1934
F121.3
sVfinal
p1935
I00
sa(dp1936
Vto
p1937
F121.91
sVconfidence
p1938
F0.49099999999999999
sVspeaker
p1939
I1
sVfrom
p1940
F121.41
sVfinal
p1941
I00
sa(dp1942
Vto
p1943
F122.62
sVconfidence
p1944
F0.49099999999999999
sVspeaker
p1945
I1
sVfrom
p1946
F121.91
sVfinal
p1947
I00
sa(dp1948
Vto
p1949
F123.66
sVconfidence
p1950
F0.47999999999999998
sVspeaker
p1951
I2
sVfrom
p1952
F123.44
sVfinal
p1953
I00
sa(dp1954
Vto
p1955
F124.08
sVconfidence
p1956
F0.47999999999999998
sVspeaker
p1957
I2
sVfrom
p1958
F123.66
sVfinal
p1959
I00
sa(dp1960
Vto
p1961
F124.68000000000001
sVconfidence
p1962
F0.47999999999999998
sVspeaker
p1963
I2
sVfrom
p1964
F124.08
sVfinal
p1965
I00
sa(dp1966
Vto
p1967
F125.62
sVconfidence
p1968
F0.49399999999999999
sVspeaker
p1969
I2
sVfrom
p1970
F125.41
sVfinal
p1971
I00
sa(dp1972
Vto
p1973
F125.84999999999999
sVconfidence
p1974
F0.49399999999999999
sVspeaker
p1975
I2
sVfrom
p1976
F125.62
sVfinal
p1977
I00
sa(dp1978
Vto
p1979
F125.97
sVconfidence
p1980
F0.49399999999999999
sVspeaker
p1981
I2
sVfrom
p1982
F125.84999999999999
sVfinal
p1983
I00
sa(dp1984
Vto
p1985
F126.40000000000001
sVconfidence
p1986
F0.49399999999999999
sVspeaker
p1987
I2
sVfrom
p1988
F125.97
sVfinal
p1989
I00
sa(dp1990
Vto
p1991
F126.61
sVconfidence
p1992
F0.49399999999999999
sVspeaker
p1993
I2
sVfrom
p1994
F126.40000000000001
sVfinal
p1995
I00
sa(dp1996
Vto
p1997
F127.06
sVconfidence
p1998
F0.49399999999999999
sVspeaker
p1999
I2
sVfrom
p2000
F126.61
sVfinal
p2001
I00
sa(dp2002
Vto
p2003
F127.28
sVconfidence
p2004
F0.49399999999999999
sVspeaker
p2005
I2
sVfrom
p2006
F127.06
sVfinal
p2007
I00
sa(dp2008
Vto
p2009
F127.84999999999999
sVconfidence
p2010
F0.49399999999999999
sVspeaker
p2011
I2
sVfrom
p2012
F127.28
sVfinal
p2013
I00
sa(dp2014
Vto
p2015
F128.41
sVconfidence
p2016
F0.49399999999999999
sVspeaker
p2017
I2
sVfrom
p2018
F127.84999999999999
sVfinal
p2019
I00
sa(dp2020
Vto
p2021
F128.74000000000001
sVconfidence
p2022
F0.49399999999999999
sVspeaker
p2023
I2
sVfrom
p2024
F128.41
sVfinal
p2025
I00
sa(dp2026
Vto
p2027
F129.19999999999999
sVconfidence
p2028
F0.49399999999999999
sVspeaker
p2029
I2
sVfrom
p2030
F128.74000000000001
sVfinal
p2031
I00
sa(dp2032
Vto
p2033
F129.81999999999999
sVconfidence
p2034
F0.47399999999999998
sVspeaker
p2035
I2
sVfrom
p2036
F129.61000000000001
sVfinal
p2037
I00
sa(dp2038
Vto
p2039
F129.97999999999999
sVconfidence
p2040
F0.47399999999999998
sVspeaker
p2041
I2
sVfrom
p2042
F129.81999999999999
sVfinal
p2043
I00
sa(dp2044
Vto
p2045
F130.47999999999999
sVconfidence
p2046
F0.47399999999999998
sVspeaker
p2047
I2
sVfrom
p2048
F129.97999999999999
sVfinal
p2049
I00
sa(dp2050
Vto
p2051
F130.63999999999999
sVconfidence
p2052
F0.47399999999999998
sVspeaker
p2053
I2
sVfrom
p2054
F130.47999999999999
sVfinal
p2055
I00
sa(dp2056
Vto
p2057
F130.97999999999999
sVconfidence
p2058
F0.47399999999999998
sVspeaker
p2059
I2
sVfrom
p2060
F130.63999999999999
sVfinal
p2061
I00
sa(dp2062
Vto
p2063
F131.19999999999999
sVconfidence
p2064
F0.497
sVspeaker
p2065
I2
sVfrom
p2066
F131.00999999999999
sVfinal
p2067
I00
sa(dp2068
Vto
p2069
F131.44999999999999
sVconfidence
p2070
F0.497
sVspeaker
p2071
I2
sVfrom
p2072
F131.19999999999999
sVfinal
p2073
I00
sa(dp2074
Vto
p2075
F131.59999999999999
sVconfidence
p2076
F0.497
sVspeaker
p2077
I2
sVfrom
p2078
F131.44999999999999
sVfinal
p2079
I00
sa(dp2080
Vto
p2081
F131.71000000000001
sVconfidence
p2082
F0.497
sVspeaker
p2083
I2
sVfrom
p2084
F131.59999999999999
sVfinal
p2085
I00
sa(dp2086
Vto
p2087
F131.97
sVconfidence
p2088
F0.497
sVspeaker
p2089
I2
sVfrom
p2090
F131.71000000000001
sVfinal
p2091
I00
sa(dp2092
Vto
p2093
F132.71000000000001
sVconfidence
p2094
F0.497
sVspeaker
p2095
I2
sVfrom
p2096
F131.97
sVfinal
p2097
I00
sa(dp2098
Vto
p2099
F134.72999999999999
sVconfidence
p2100
F0.47399999999999998
sVspeaker
p2101
I1
sVfrom
p2102
F133.75999999999999
sVfinal
p2103
I00
sa(dp2104
Vto
p2105
F135.62
sVconfidence
p2106
F0.51400000000000001
sVspeaker
p2107
I1
sVfrom
p2108
F135.25
sVfinal
p2109
I00
sa(dp2110
Vto
p2111
F135.88
sVconfidence
p2112
F0.51400000000000001
sVspeaker
p2113
I1
sVfrom
p2114
F135.62
sVfinal
p2115
I00
sa(dp2116
Vto
p2117
F136.27000000000001
sVconfidence
p2118
F0.51400000000000001
sVspeaker
p2119
I1
sVfrom
p2120
F135.88
sVfinal
p2121
I00
sa(dp2122
Vto
p2123
F136.59999999999999
sVconfidence
p2124
F0.51400000000000001
sVspeaker
p2125
I1
sVfrom
p2126
F136.27000000000001
sVfinal
p2127
I00
sa(dp2128
Vto
p2129
F137.68000000000001
sVconfidence
p2130
F0.50700000000000001
sVspeaker
p2131
I1
sVfrom
p2132
F137.33000000000001
sVfinal
p2133
I00
sa(dp2134
Vto
p2135
F138.28
sVconfidence
p2136
F0.50700000000000001
sVspeaker
p2137
I1
sVfrom
p2138
F137.68000000000001
sVfinal
p2139
I00
sa(dp2140
Vto
p2141
F138.43000000000001
sVconfidence
p2142
F0.50700000000000001
sVspeaker
p2143
I1
sVfrom
p2144
F138.28
sVfinal
p2145
I00
sa(dp2146
Vto
p2147
F138.94
sVconfidence
p2148
F0.50700000000000001
sVspeaker
p2149
I1
sVfrom
p2150
F138.43000000000001
sVfinal
p2151
I00
sa(dp2152
Vto
p2153
F139.83000000000001
sVconfidence
p2154
F0.50700000000000001
sVspeaker
p2155
I1
sVfrom
p2156
F138.94
sVfinal
p2157
I00
sa(dp2158
Vto
p2159
F140.81
sVconfidence
p2160
F0.44500000000000001
sVspeaker
p2161
I1
sVfrom
p2162
F140.53
sVfinal
p2163
I00
sa(dp2164
Vto
p2165
F141.25999999999999
sVconfidence
p2166
F0.44500000000000001
sVspeaker
p2167
I1
sVfrom
p2168
F140.81
sVfinal
p2169
I00
sa(dp2170
Vto
p2171
F141.62
sVconfidence
p2172
F0.44500000000000001
sVspeaker
p2173
I1
sVfrom
p2174
F141.25999999999999
sVfinal
p2175
I00
sa(dp2176
Vto
p2177
F142.25999999999999
sVconfidence
p2178
F0.44500000000000001
sVspeaker
p2179
I1
sVfrom
p2180
F141.62
sVfinal
p2181
I00
sa(dp2182
Vto
p2183
F142.81999999999999
sVconfidence
p2184
F0.48899999999999999
sVspeaker
p2185
I1
sVfrom
p2186
F142.49000000000001
sVfinal
p2187
I00
sa(dp2188
Vto
p2189
F143.16
sVconfidence
p2190
F0.48899999999999999
sVspeaker
p2191
I1
sVfrom
p2192
F142.81999999999999
sVfinal
p2193
I00
sa(dp2194
Vto
p2195
F143.71000000000001
sVconfidence
p2196
F0.48899999999999999
sVspeaker
p2197
I1
sVfrom
p2198
F143.16
sVfinal
p2199
I00
sa(dp2200
Vto
p2201
F144.36000000000001
sVconfidence
p2202
F0.50800000000000001
sVspeaker
p2203
I1
sVfrom
p2204
F144.05000000000001
sVfinal
p2205
I00
sa(dp2206
Vto
p2207
F144.65000000000001
sVconfidence
p2208
F0.50800000000000001
sVspeaker
p2209
I1
sVfrom
p2210
F144.36000000000001
sVfinal
p2211
I00
sa(dp2212
Vto
p2213
F144.87
sVconfidence
p2214
F0.50800000000000001
sVspeaker
p2215
I1
sVfrom
p2216
F144.65000000000001
sVfinal
p2217
I00
sa(dp2218
Vto
p2219
F144.99000000000001
sVconfidence
p2220
F0.50800000000000001
sVspeaker
p2221
I1
sVfrom
p2222
F144.87
sVfinal
p2223
I00
sa(dp2224
Vto
p2225
F145.33000000000001
sVconfidence
p2226
F0.50800000000000001
sVspeaker
p2227
I1
sVfrom
p2228
F144.99000000000001
sVfinal
p2229
I00
sa(dp2230
Vto
p2231
F145.87
sVconfidence
p2232
F0.50800000000000001
sVspeaker
p2233
I1
sVfrom
p2234
F145.33000000000001
sVfinal
p2235
I00
sa(dp2236
Vto
p2237
F146.06999999999999
sVconfidence
p2238
F0.50800000000000001
sVspeaker
p2239
I1
sVfrom
p2240
F145.87
sVfinal
p2241
I00
sa(dp2242
Vto
p2243
F146.19999999999999
sVconfidence
p2244
F0.50800000000000001
sVspeaker
p2245
I1
sVfrom
p2246
F146.06999999999999
sVfinal
p2247
I00
sa(dp2248
Vto
p2249
F146.36000000000001
sVconfidence
p2250
F0.50800000000000001
sVspeaker
p2251
I1
sVfrom
p2252
F146.19999999999999
sVfinal
p2253
I00
sa(dp2254
Vto
p2255
F146.97999999999999
sVconfidence
p2256
F0.50800000000000001
sVspeaker
p2257
I1
sVfrom
p2258
F146.36000000000001
sVfinal
p2259
I01
sasVresults
p2260
(lp2261
(dp2262
Valternatives
p2263
(lp2264
(dp2265
Vtimestamps
p2266
(lp2267
(lp2268
Valright
p2269
aF3.1600000000000001
aF3.6200000000000001
aa(lp2270
Vso
p2271
aF4.0300000000000002
aF4.2300000000000004
aa(lp2272
VI
aF4.2300000000000004
aF4.3300000000000001
aa(lp2273
Vthink
p2274
aF4.3300000000000001
aF4.7000000000000002
aa(lp2275
Vbridge
p2276
aF4.7000000000000002
aF5.04
aa(lp2277
Vconsulting
p2278
aF5.04
aF5.5999999999999996
aa(lp2279
Vdid
p2280
aF5.5999999999999996
aF5.7199999999999998
aa(lp2281
Va
aF5.7199999999999998
aF5.7699999999999996
aa(lp2282
Vbang
p2283
aF5.7699999999999996
aF6.25
aa(lp2284
Vup
p2285
aF6.25
aF6.4000000000000004
aa(lp2286
Vjob
p2287
aF6.4000000000000004
aF6.7300000000000004
aa(lp2288
Vfor
p2289
aF6.7300000000000004
aF6.9000000000000004
aa(lp2290
Vus
p2291
aF6.9000000000000004
aF7.0800000000000001
aa(lp2292
Von
p2293
aF7.0800000000000001
aF7.2000000000000002
aa(lp2294
Vthis
p2295
aF7.2000000000000002
aF7.4000000000000004
aa(lp2296
Vmarketing
p2297
aF7.4000000000000004
aF7.8099999999999996
aa(lp2298
Vframework
p2299
aF7.8099999999999996
aF8.5399999999999991
aa(lp2300
Vbut
p2301
aF8.9100000000000001
aF9.1300000000000008
aa(lp2302
Vimplementing
p2303
aF9.1999999999999993
aF9.9100000000000001
aa(lp2304
Vthe
p2305
aF9.9100000000000001
aF10
aa(lp2306
Vplan
p2307
aF10
aF10.33
aa(lp2308
Vis
p2309
aF10.33
aF10.44
aa(lp2310
Vgoing
p2311
aF10.44
aF10.699999999999999
aa(lp2312
Vto
p2313
aF10.699999999999999
aF10.800000000000001
aa(lp2314
Vbe
p2315
aF10.800000000000001
aF10.94
aa(lp2316
Vthe
p2317
aF10.94
aF11.09
aa(lp2318
Vreal
p2319
aF11.09
aF11.369999999999999
aa(lp2320
Vwork
p2321
aF11.369999999999999
aF11.77
aasVconfidence
p2322
F0.91900000000000004
sVtranscript
p2323
Valright so I think bridge consulting did a bang up job for us on this marketing framework but implementing the plan is going to be the real work 
p2324
sasVfinal
p2325
I01
sa(dp2326
Valternatives
p2327
(lp2328
(dp2329
Vtimestamps
p2330
(lp2331
(lp2332
Vyeah
p2333
aF12.380000000000001
aF12.84
aa(lp2334
VI'm
p2335
aF12.9
aF13.24
aa(lp2336
Vwith
p2337
aF13.24
aF13.460000000000001
aa(lp2338
Vyou
p2339
aF13.460000000000001
aF13.609999999999999
aa(lp2340
Von
p2341
aF13.609999999999999
aF13.77
aa(lp2342
Vthat
p2343
aF13.77
aF14.09
aa(lp2344
Vwe
p2345
aF14.529999999999999
aF14.67
aa(lp2346
Vhave
p2347
aF14.67
aF14.92
aa(lp2348
Vto
p2349
aF14.92
aF15
aa(lp2350
Vtranslate
p2351
aF15
aF15.59
aa(lp2352
Vthis
p2353
aF15.59
aF15.75
aa(lp2354
Vinto
p2355
aF15.75
aF15.949999999999999
aa(lp2356
Vaction
p2357
aF15.949999999999999
aF16.440000000000001
aasVconfidence
p2358
F0.94399999999999995
sVtranscript
p2359
Vyeah I'm with you on that we have to translate this into action 
p2360
sasVfinal
p2361
I01
sa(dp2362
Valternatives
p2363
(lp2364
(dp2365
Vtimestamps
p2366
(lp2367
(lp2368
Vexactly
p2369
aF17.109999999999999
aF17.949999999999999
aa(lp2370
Vand
p2371
aF18.329999999999998
aF18.600000000000001
aa(lp2372
Vwe've
p2373
aF18.600000000000001
aF18.789999999999999
aa(lp2374
Vgot
p2375
aF18.789999999999999
aF18.989999999999998
aa(lp2376
Va
aF18.989999999999998
aF19.059999999999999
aa(lp2377
Vrough
p2378
aF19.059999999999999
aF19.41
aa(lp2379
Vtime
p2380
aF19.41
aF19.789999999999999
aa(lp2381
Vline
p2382
aF19.789999999999999
aF20.18
aa(lp2383
Vbut
p2384
aF20.469999999999999
aF20.620000000000001
aa(lp2385
Vnow
p2386
aF20.620000000000001
aF20.879999999999999
aa(lp2387
Vwe
p2388
aF20.879999999999999
aF21.02
aa(lp2389
Vneed
p2390
aF21.02
aF21.210000000000001
aa(lp2391
Vto
p2392
aF21.210000000000001
aF21.289999999999999
aa(lp2393
Vdecide
p2394
aF21.289999999999999
aF21.850000000000001
aa(lp2395
Vwho's
p2396
aF21.850000000000001
aF22.100000000000001
aa(lp2397
Vgoing
p2398
aF22.100000000000001
aF22.399999999999999
aa(lp2399
Vto
p2400
aF22.399999999999999
aF22.52
aa(lp2401
Vdo
p2402
aF22.52
aF22.699999999999999
aa(lp2403
Vwhat
p2404
aF22.699999999999999
aF23.109999999999999
aasVconfidence
p2405
F0.88500000000000001
sVtranscript
p2406
Vexactly and we've got a rough time line but now we need to decide who's going to do what 
p2407
sasVfinal
p2408
I01
sa(dp2409
Valternatives
p2410
(lp2411
(dp2412
Vtimestamps
p2413
(lp2414
(lp2415
Vthere
p2416
aF23.870000000000001
aF24.050000000000001
aa(lp2417
Vare
p2418
aF24.050000000000001
aF24.18
aa(lp2419
Vtwelve
p2420
aF24.18
aF24.780000000000001
aa(lp2421
Vaction
p2422
aF24.809999999999999
aF25.190000000000001
aa(lp2423
Vitems
p2424
aF25.190000000000001
aF25.539999999999999
aa(lp2425
Vhere
p2426
aF25.539999999999999
aF25.890000000000001
aasVconfidence
p2427
F0.98499999999999999
sVtranscript
p2428
Vthere are twelve action items here 
p2429
sasVfinal
p2430
I01
sa(dp2431
Valternatives
p2432
(lp2433
(dp2434
Vtimestamps
p2435
(lp2436
(lp2437
Vso
p2438
aF26.25
aF26.59
aa(lp2439
Veveryone
p2440
aF26.620000000000001
aF27.140000000000001
aa(lp2441
Vwill
p2442
aF27.140000000000001
aF27.25
aa(lp2443
Vhave
p2444
aF27.25
aF27.460000000000001
aa(lp2445
Va
aF27.460000000000001
aF27.510000000000002
aa(lp2446
Vpart
p2447
aF27.510000000000002
aF27.789999999999999
aa(lp2448
Vto
p2449
aF27.789999999999999
aF27.890000000000001
aa(lp2450
Vplay
p2451
aF27.890000000000001
aF28.359999999999999
aasVconfidence
p2452
F0.999
sVtranscript
p2453
Vso everyone will have a part to play 
p2454
sasVfinal
p2455
I01
sa(dp2456
Valternatives
p2457
(lp2458
(dp2459
Vtimestamps
p2460
(lp2461
(lp2462
Vlet's
p2463
aF29.109999999999999
aF29.34
aa(lp2464
Vstart
p2465
aF29.34
aF29.66
aa(lp2466
Vright
p2467
aF29.66
aF29.870000000000001
aa(lp2468
Vat
p2469
aF29.870000000000001
aF29.969999999999999
aa(lp2470
Vthe
p2471
aF29.969999999999999
aF30.07
aa(lp2472
Vtop
p2473
aF30.07
aF30.41
aa(lp2474
Vwith
p2475
aF30.41
aF30.57
aa(lp2476
Vrevising
p2477
aF30.57
aF31.07
aa(lp2478
Vthe
p2479
aF31.07
aF31.16
aa(lp2480
Vwebsite
p2481
aF31.16
aF31.789999999999999
aasVconfidence
p2482
F0.89800000000000002
sVtranscript
p2483
Vlet's start right at the top with revising the website 
p2484
sasVfinal
p2485
I01
sa(dp2486
Valternatives
p2487
(lp2488
(dp2489
Vtimestamps
p2490
(lp2491
(lp2492
Vanyone
p2493
aF32.469999999999999
aF32.829999999999998
aa(lp2494
Vwant
p2495
aF32.829999999999998
aF33.100000000000001
aa(lp2496
Vto
p2497
aF33.100000000000001
aF33.210000000000001
aa(lp2498
Vtake
p2499
aF33.210000000000001
aF33.420000000000002
aa(lp2500
Vthe
p2501
aF33.420000000000002
aF33.520000000000003
aa(lp2502
Vlead
p2503
aF33.520000000000003
aF33.780000000000001
aa(lp2504
Von
p2505
aF33.780000000000001
aF33.950000000000003
aa(lp2506
Vthis
p2507
aF33.950000000000003
aF34.350000000000001
aasVconfidence
p2508
F0.98499999999999999
sVtranscript
p2509
Vanyone want to take the lead on this 
p2510
sasVfinal
p2511
I01
sa(dp2512
Valternatives
p2513
(lp2514
(dp2515
Vtimestamps
p2516
(lp2517
(lp2518
Vjust
p2519
aF35.359999999999999
aF35.759999999999998
aa(lp2520
Vso
p2521
aF35.759999999999998
aF35.960000000000001
aa(lp2522
Vwe're
p2523
aF35.960000000000001
aF36.140000000000001
aa(lp2524
Vclear
p2525
aF36.140000000000001
aF36.539999999999999
aa(lp2526
VCarlos
p2527
aF36.539999999999999
aF37.369999999999997
aa(lp2528
Vand
p2529
aF37.439999999999998
aF37.82
aa(lp2530
Vlooking
p2531
aF37.82
aF38.189999999999998
aa(lp2532
Vahead
p2533
aF38.189999999999998
aF38.549999999999997
aa(lp2534
Vto
p2535
aF38.549999999999997
aF38.670000000000002
aa(lp2536
Vthe
p2537
aF38.670000000000002
aF38.840000000000003
aa(lp2538
Vother
p2539
aF38.840000000000003
aF39.100000000000001
aa(lp2540
Vactions
p2541
aF39.100000000000001
aF39.859999999999999
aasVconfidence
p2542
F0.998
sVtranscript
p2543
Vjust so we're clear Carlos and looking ahead to the other actions 
p2544
sasVfinal
p2545
I01
sa(dp2546
Valternatives
p2547
(lp2548
(dp2549
Vtimestamps
p2550
(lp2551
(lp2552
Vyou
p2553
aF40.390000000000001
aF40.57
aa(lp2554
Vmean
p2555
aF40.57
aF40.950000000000003
aa(lp2556
Vsomeone
p2557
aF41.030000000000001
aF41.479999999999997
aa(lp2558
Vto
p2559
aF41.479999999999997
aF41.640000000000001
aa(lp2560
Vsee
p2561
aF41.640000000000001
aF41.909999999999997
aa(lp2562
Vthings
p2563
aF41.909999999999997
aF42.289999999999999
aa(lp2564
Vthrough
p2565
aF42.289999999999999
aF42.649999999999999
aa(lp2566
Von
p2567
aF42.649999999999999
aF43.100000000000001
aa(lp2568
Vall
p2569
aF43.18
aF43.439999999999998
aa(lp2570
Vaspects
p2571
aF43.439999999999998
aF43.990000000000002
aa(lp2572
Vof
p2573
aF43.990000000000002
aF44.109999999999999
aa(lp2574
Vthe
p2575
aF44.109999999999999
aF44.200000000000003
aa(lp2576
Vwebsite
p2577
aF44.200000000000003
aF44.869999999999997
aasVconfidence
p2578
F0.95899999999999996
sVtranscript
p2579
Vyou mean someone to see things through on all aspects of the website 
p2580
sasVfinal
p2581
I01
sa(dp2582
Valternatives
p2583
(lp2584
(dp2585
Vtimestamps
p2586
(lp2587
(lp2588
Vthat
p2589
aF45.479999999999997
aF45.75
aa(lp2590
Vwould
p2591
aF45.75
aF45.899999999999999
aa(lp2592
Vinclude
p2593
aF45.899999999999999
aF46.439999999999998
aa(lp2594
Vnot
p2595
aF46.439999999999998
aF46.719999999999999
aa(lp2596
Vjust
p2597
aF46.719999999999999
aF47.030000000000001
aa(lp2598
Vpoint
p2599
aF47.030000000000001
aF47.409999999999997
aa(lp2600
Vone
p2601
aF47.409999999999997
aF47.960000000000001
aa(lp2602
Vbut
p2603
aF48.240000000000002
aF48.579999999999998
aa(lp2604
Valso
p2605
aF48.609999999999999
aF49
aa(lp2606
Vpoints
p2607
aF49
aF49.5
aa(lp2608
Vto
p2609
aF49.5
aF49.719999999999999
aa(lp2610
Vin
p2611
aF49.719999999999999
aF49.869999999999997
aa(lp2612
Vthree
p2613
aF49.869999999999997
aF50.32
aasVconfidence
p2614
F0.97499999999999998
sVtranscript
p2615
Vthat would include not just point one but also points to in three 
p2616
sasVfinal
p2617
I01
sa(dp2618
Valternatives
p2619
(lp2620
(dp2621
Vtimestamps
p2622
(lp2623
(lp2624
Vcollecting
p2625
aF50.780000000000001
aF51.270000000000003
aa(lp2626
Vfeedback
p2627
aF51.270000000000003
aF51.920000000000002
aa(lp2628
Von
p2629
aF51.920000000000002
aF52.049999999999997
aa(lp2630
Vthe
p2631
aF52.049999999999997
aF52.149999999999999
aa(lp2632
Vsite
p2633
aF52.149999999999999
aF52.590000000000003
aa(lp2634
Vand
p2635
aF52.859999999999999
aF53.200000000000003
aa(lp2636
Vmanaging
p2637
aF53.200000000000003
aF53.729999999999997
aa(lp2638
Vonline
p2639
aF53.729999999999997
aF54.140000000000001
aa(lp2640
Vreviews
p2641
aF54.140000000000001
aF54.799999999999997
aasVconfidence
p2642
F0.98399999999999999
sVtranscript
p2643
Vcollecting feedback on the site and managing online reviews 
p2644
sasVfinal
p2645
I01
sa(dp2646
Valternatives
p2647
(lp2648
(dp2649
Vtimestamps
p2650
(lp2651
(lp2652
Vor
p2653
aF55.590000000000003
aF55.799999999999997
aa(lp2654
Vwere
p2655
aF55.799999999999997
aF56.020000000000003
aa(lp2656
Vyou
p2657
aF56.020000000000003
aF56.189999999999998
aa(lp2658
Vthinking
p2659
aF56.189999999999998
aF56.609999999999999
aa(lp2660
Vseparate
p2661
aF56.609999999999999
aF57.100000000000001
aa(lp2662
Vpeople
p2663
aF57.100000000000001
aF57.469999999999999
aa(lp2664
Vwould
p2665
aF57.469999999999999
aF57.710000000000001
aa(lp2666
Vcarry
p2667
aF57.710000000000001
aF58.079999999999998
aa(lp2668
Vout
p2669
aF58.079999999999998
aF58.259999999999998
aa(lp2670
Veach
p2671
aF58.289999999999999
aF58.590000000000003
aa(lp2672
Vaction
p2673
aF58.590000000000003
aF59.140000000000001
aasVconfidence
p2674
F0.998
sVtranscript
p2675
Vor were you thinking separate people would carry out each action 
p2676
sasVfinal
p2677
I01
sa(dp2678
Valternatives
p2679
(lp2680
(dp2681
Vtimestamps
p2682
(lp2683
(lp2684
Vif
p2685
aF59.979999999999997
aF60.25
aa(lp2686
VI
aF60.25
aF60.340000000000003
aa(lp2687
Vcan
p2688
aF60.340000000000003
aF60.509999999999998
aa(lp2689
Vjump
p2690
aF60.509999999999998
aF60.82
aa(lp2691
Vin
p2692
aF60.82
aF61.130000000000003
aa(lp2693
VI'd
p2694
aF61.600000000000001
aF61.840000000000003
aa(lp2695
Vsay
p2696
aF61.840000000000003
aF62.090000000000003
aa(lp2697
Vthat
p2698
aF62.090000000000003
aF62.359999999999999
aa(lp2699
Vif
p2700
aF62.390000000000001
aF62.600000000000001
aa(lp2701
Vwe're
p2702
aF62.600000000000001
aF62.729999999999997
aa(lp2703
Vworking
p2704
aF62.729999999999997
aF63.119999999999997
aa(lp2705
Vtowards
p2706
aF63.119999999999997
aF63.579999999999998
aa(lp2707
Va
aF63.579999999999998
aF63.670000000000002
aa(lp2708
Vbetter
p2709
aF63.670000000000002
aF64.019999999999996
aa(lp2710
Vweb
p2711
aF64.019999999999996
aF64.280000000000001
aa(lp2712
Vpresence
p2713
aF64.280000000000001
aF64.849999999999994
aa(lp2714
Voverall
p2715
aF64.879999999999995
aF65.519999999999996
aa(lp2716
Vit
p2717
aF65.969999999999999
aF66.159999999999997
aa(lp2718
Vwould
p2719
aF66.159999999999997
aF66.280000000000001
aa(lp2720
Vbe
p2721
aF66.280000000000001
aF66.400000000000006
aa(lp2722
Vmore
p2723
aF66.400000000000006
aF66.75
aa(lp2724
Vconsistent
p2725
aF66.75
aF67.540000000000006
aa(lp2726
Vif
p2727
aF67.569999999999993
aF67.739999999999995
aa(lp2728
Vone
p2729
aF67.739999999999995
aF68.090000000000003
aa(lp2730
Vperson
p2731
aF68.090000000000003
aF68.510000000000005
aa(lp2732
Vhandles
p2733
aF68.510000000000005
aF68.909999999999997
aa(lp2734
Veverything
p2735
aF68.909999999999997
aF69.379999999999995
aasVconfidence
p2736
F0.93899999999999995
sVtranscript
p2737
Vif I can jump in I'd say that if we're working towards a better web presence overall it would be more consistent if one person handles everything 
p2738
sasVfinal
p2739
I01
sa(dp2740
Valternatives
p2741
(lp2742
(dp2743
Vtimestamps
p2744
(lp2745
(lp2746
Vagreed
p2747
aF70.310000000000002
aF70.859999999999999
aa(lp2748
Vit's
p2749
aF71.230000000000004
aF71.469999999999999
aa(lp2750
Vbest
p2751
aF71.469999999999999
aF71.969999999999999
aa(lp2752
Vif
p2753
aF71.969999999999999
aF72.140000000000001
aa(lp2754
Vone
p2755
aF72.140000000000001
aF72.459999999999994
aa(lp2756
Vperson
p2757
aF72.459999999999994
aF72.870000000000005
aa(lp2758
Vtakes
p2759
aF72.870000000000005
aF73.170000000000002
aa(lp2760
Vownership
p2761
aF73.170000000000002
aF73.620000000000005
aa(lp2762
Vof
p2763
aF73.620000000000005
aF73.739999999999995
aa(lp2764
Vall
p2765
aF73.739999999999995
aF73.890000000000001
aa(lp2766
Vthree
p2767
aF73.890000000000001
aF74.439999999999998
aasVconfidence
p2768
F0.89700000000000002
sVtranscript
p2769
Vagreed it's best if one person takes ownership of all three 
p2770
sasVfinal
p2771
I01
sa(dp2772
Valternatives
p2773
(lp2774
(dp2775
Vtimestamps
p2776
(lp2777
(lp2778
Vit
p2779
aF75.069999999999993
aF75.230000000000004
aa(lp2780
Vmight
p2781
aF75.230000000000004
aF75.560000000000002
aa(lp2782
Vinvolve
p2783
aF75.560000000000002
aF75.959999999999994
aa(lp2784
Va
aF75.959999999999994
aF76.010000000000005
aa(lp2785
Vcouple
p2786
aF76.010000000000005
aF76.349999999999994
aa(lp2787
Vof
p2788
aF76.349999999999994
aF76.450000000000003
aa(lp2789
Vpeople
p2790
aF76.450000000000003
aF76.769999999999996
aa(lp2791
Vdoing
p2792
aF76.769999999999996
aF77.069999999999993
aa(lp2793
Vthe
p2794
aF77.069999999999993
aF77.159999999999997
aa(lp2795
Vwork
p2796
aF77.159999999999997
aF77.659999999999997
aa(lp2797
Vbut
p2798
aF77.930000000000007
aF78.069999999999993
aa(lp2799
Vwe
p2800
aF78.069999999999993
aF78.189999999999998
aa(lp2801
Vneed
p2802
aF78.189999999999998
aF78.439999999999998
aa(lp2803
Va
aF78.439999999999998
aF78.480000000000004
aa(lp2804
Vlead
p2805
aF78.480000000000004
aF78.959999999999994
aasVconfidence
p2806
F0.94499999999999995
sVtranscript
p2807
Vit might involve a couple of people doing the work but we need a lead 
p2808
sasVfinal
p2809
I01
sa(dp2810
Valternatives
p2811
(lp2812
(dp2813
Vtimestamps
p2814
(lp2815
(lp2816
Vfair
p2817
aF79.590000000000003
aF79.920000000000002
aa(lp2818
Venough
p2819
aF79.920000000000002
aF80.430000000000007
aasVconfidence
p2820
F0.998
sVtranscript
p2821
Vfair enough 
p2822
sasVfinal
p2823
I01
sa(dp2824
Valternatives
p2825
(lp2826
(dp2827
Vtimestamps
p2828
(lp2829
(lp2830
Vand
p2831
aF80.920000000000002
aF81.120000000000005
aa(lp2832
Vso
p2833
aF81.120000000000005
aF81.569999999999993
aa(lp2834
Vis
p2835
aF81.769999999999996
aF82.109999999999999
aa(lp2836
Vthat
p2837
aF82.109999999999999
aF82.430000000000007
aa(lp2838
Vsomething
p2839
aF82.430000000000007
aF82.930000000000007
aa(lp2840
Vyou'd
p2841
aF82.930000000000007
aF83.120000000000005
aa(lp2842
Vlike
p2843
aF83.120000000000005
aF83.319999999999993
aa(lp2844
Vto
p2845
aF83.319999999999993
aF83.420000000000002
aa(lp2846
Vsign
p2847
aF83.420000000000002
aF83.689999999999998
aa(lp2848
Vup
p2849
aF83.689999999999998
aF83.819999999999993
aa(lp2850
Vfor
p2851
aF83.819999999999993
aF84
aa(lp2852
VByron
p2853
aF84
aF84.489999999999995
aa(lp2854
Vyou've
p2855
aF84.890000000000001
aF85.120000000000005
aa(lp2856
Vgot
p2857
aF85.120000000000005
aF85.390000000000001
aa(lp2858
Vthe
p2859
aF85.390000000000001
aF85.489999999999995
aa(lp2860
Vright
p2861
aF85.489999999999995
aF85.730000000000004
aa(lp2862
Vskill
p2863
aF85.730000000000004
aF86.090000000000003
aa(lp2864
Vset
p2865
aF86.090000000000003
aF86.349999999999994
aa(lp2866
Vfor
p2867
aF86.349999999999994
aF86.629999999999995
aa(lp2868
Vit
p2869
aF86.629999999999995
aF86.799999999999997
aasVconfidence
p2870
F0.94899999999999995
sVtranscript
p2871
Vand so is that something you'd like to sign up for Byron you've got the right skill set for it 
p2872
sasVfinal
p2873
I01
sa(dp2874
Valternatives
p2875
(lp2876
(dp2877
Vtimestamps
p2878
(lp2879
(lp2880
Vyeah
p2881
aF87.549999999999997
aF87.939999999999998
aa(lp2882
Valright
p2883
aF88.079999999999998
aF88.640000000000001
aa(lp2884
VI'm
p2885
aF88.670000000000002
aF88.900000000000006
aa(lp2886
Vgame
p2887
aF88.900000000000006
aF89.299999999999997
aasVconfidence
p2888
F0.79800000000000004
sVtranscript
p2889
Vyeah alright I'm game 
p2890
sasVfinal
p2891
I01
sa(dp2892
Valternatives
p2893
(lp2894
(dp2895
Vtimestamps
p2896
(lp2897
(lp2898
VI'm
p2899
aF89.969999999999999
aF90.260000000000005
aa(lp2900
Vthinking
p2901
aF90.260000000000005
aF90.739999999999995
aa(lp2902
Vthat
p2903
aF90.739999999999995
aF90.950000000000003
aa(lp2904
Vthere's
p2905
aF90.950000000000003
aF91.200000000000003
aa(lp2906
Va
aF91.200000000000003
aF91.269999999999996
aa(lp2907
Vlot
p2908
aF91.269999999999996
aF91.829999999999998
aa(lp2909
Vto
p2910
aF91.829999999999998
aF91.969999999999999
aa(lp2911
Vdo
p2912
aF91.969999999999999
aF92.25
aa(lp2913
Vhere
p2914
aF92.25
aF92.790000000000006
aa(lp2915
Vso
p2916
aF93
aF93.459999999999994
aa(lp2917
Vas
p2918
aF93.489999999999995
aF93.680000000000007
aa(lp2919
Vlong
p2920
aF93.680000000000007
aF93.930000000000007
aa(lp2921
Vas
p2922
aF93.930000000000007
aF94.069999999999993
aa(lp2923
VI
aF94.069999999999993
aF94.180000000000007
aa(lp2924
Vcan
p2925
aF94.180000000000007
aF94.450000000000003
aa(lp2926
Vdelegate
p2927
aF94.450000000000003
aF94.980000000000004
aa(lp2928
Vsome
p2929
aF94.980000000000004
aF95.170000000000002
aa(lp2930
Vtasks
p2931
aF95.170000000000002
aF95.730000000000004
aa(lp2932
Valong
p2933
aF95.730000000000004
aF96.060000000000002
aa(lp2934
Vthe
p2935
aF96.060000000000002
aF96.140000000000001
aa(lp2936
Vway
p2937
aF96.140000000000001
aF96.599999999999994
aa(lp2938
VI'm
p2939
aF96.760000000000005
aF96.980000000000004
aa(lp2940
Vgood
p2941
aF96.980000000000004
aF97.349999999999994
aasVconfidence
p2942
F0.97999999999999998
sVtranscript
p2943
VI'm thinking that there's a lot to do here so as long as I can delegate some tasks along the way I'm good 
p2944
sasVfinal
p2945
I01
sa(dp2946
Valternatives
p2947
(lp2948
(dp2949
Vtimestamps
p2950
(lp2951
(lp2952
VI'm
p2953
aF98.310000000000002
aF98.569999999999993
aa(lp2954
Vcertainly
p2955
aF98.569999999999993
aF99.010000000000005
aa(lp2956
Vwilling
p2957
aF99.010000000000005
aF99.390000000000001
aa(lp2958
Vto
p2959
aF99.390000000000001
aF99.510000000000005
aa(lp2960
Vhelp
p2961
aF99.510000000000005
aF99.790000000000006
aa(lp2962
Vout
p2963
aF99.790000000000006
aF99.969999999999999
aa(lp2964
Von
p2965
aF99.969999999999999
aF100.06999999999999
aa(lp2966
Vthe
p2967
aF100.06999999999999
aF100.14
aa(lp2968
Vwebsite
p2969
aF100.14
aF100.70999999999999
aasVconfidence
p2970
F0.92400000000000004
sVtranscript
p2971
VI'm certainly willing to help out on the website 
p2972
sasVfinal
p2973
I01
sa(dp2974
Valternatives
p2975
(lp2976
(dp2977
Vtimestamps
p2978
(lp2979
(lp2980
Vgreat
p2981
aF101.28
aF101.79000000000001
aa(lp2982
Vthen
p2983
aF102.16
aF102.3
aa(lp2984
VI
aF102.3
aF102.39
aa(lp2985
Vthink
p2986
aF102.39
aF102.68000000000001
aa(lp2987
Vit's
p2988
aF102.68000000000001
aF102.83
aa(lp2989
Vespecially
p2990
aF102.83
aF103.64
aa(lp2991
Vimportant
p2992
aF103.64
aF104.20999999999999
aa(lp2993
Vthat
p2994
aF104.20999999999999
aF104.36
aa(lp2995
Vall
p2996
aF104.39
aF104.65000000000001
aa(lp2997
Vthe
p2998
aF104.65000000000001
aF104.75
aa(lp2999
Vwebsite
p3000
aF104.75
aF105.22
aa(lp3001
Vstuff
p3002
aF105.22
aF105.54000000000001
aa(lp3003
Vhappens
p3004
aF105.54000000000001
aF105.94
aa(lp3005
Vin
p3006
aF105.94
aF106.01000000000001
aa(lp3007
Va
aF106.01000000000001
aF106.08
aa(lp3008
Vtimely
p3009
aF106.08
aF106.51000000000001
aa(lp3010
Vmanner
p3011
aF106.51000000000001
aF107.01000000000001
aasVconfidence
p3012
F0.88200000000000001
sVtranscript
p3013
Vgreat then I think it's especially important that all the website stuff happens in a timely manner 
p3014
sasVfinal
p3015
I01
sa(dp3016
Valternatives
p3017
(lp3018
(dp3019
Vtimestamps
p3020
(lp3021
(lp3022
Vwe
p3023
aF107.53
aF107.72
aa(lp3024
Vmight
p3025
aF107.72
aF108.01000000000001
aa(lp3026
Vhave
p3027
aF108.01000000000001
aF108.23999999999999
aa(lp3028
Vto
p3029
aF108.23999999999999
aF108.34999999999999
aa(lp3030
Vflex
p3031
aF108.34999999999999
aF108.77
aa(lp3032
Vthe
p3033
aF108.77
aF108.89
aa(lp3034
Vtimeline
p3035
aF108.89
aF109.42
aa(lp3036
Vin
p3037
aF109.42
aF109.52
aa(lp3038
Vsome
p3039
aF109.52
aF109.90000000000001
aa(lp3040
Vplaces
p3041
aF109.90000000000001
aF110.66
aasVconfidence
p3042
F0.89100000000000001
sVtranscript
p3043
Vwe might have to flex the timeline in some places 
p3044
sasVfinal
p3045
I01
sa(dp3046
Valternatives
p3047
(lp3048
(dp3049
Vtimestamps
p3050
(lp3051
(lp3052
Vbut
p3053
aF111.06999999999999
aF111.22
aa(lp3054
Vwe
p3055
aF111.22
aF111.34
aa(lp3056
Vneed
p3057
aF111.34
aF111.59
aa(lp3058
Vto
p3059
aF111.59
aF111.7
aa(lp3060
Vstick
p3061
aF111.7
aF112.04000000000001
aa(lp3062
Vto
p3063
aF112.04000000000001
aF112.25
aa(lp3064
Vit
p3065
aF112.25
aF112.34999999999999
aa(lp3066
Vas
p3067
aF112.34999999999999
aF112.47
aa(lp3068
Vclosely
p3069
aF112.47
aF113.04000000000001
aa(lp3070
Vas
p3071
aF113.04000000000001
aF113.17
aa(lp3072
Vpossible
p3073
aF113.17
aF113.86
aasVconfidence
p3074
F0.999
sVtranscript
p3075
Vbut we need to stick to it as closely as possible 
p3076
sasVfinal
p3077
I01
sa(dp3078
Valternatives
p3079
(lp3080
(dp3081
Vtimestamps
p3082
(lp3083
(lp3084
Vyou
p3085
aF114.48
aF114.73999999999999
aa(lp3086
Vbet
p3087
aF114.73999999999999
aF115.19
aasVconfidence
p3088
F0.40500000000000003
sVtranscript
p3089
Vyou bet 
p3090
sasVfinal
p3091
I01
sa(dp3092
Valternatives
p3093
(lp3094
(dp3095
Vtimestamps
p3096
(lp3097
(lp3098
Vso
p3099
aF115.90000000000001
aF116.13
aa(lp3100
VI'd
p3101
aF116.13
aF116.34
aa(lp3102
Vlike
p3103
aF116.34
aF116.53
aa(lp3104
Vto
p3105
aF116.53
aF116.64
aa(lp3106
Vfollow
p3107
aF116.64
aF117.05
aa(lp3108
Vup
p3109
aF117.05
aF117.2
aa(lp3110
Vwith
p3111
aF117.2
aF117.34
aa(lp3112
Vyou
p3113
aF117.34
aF117.47
aa(lp3114
Vthree
p3115
aF117.47
aF117.84999999999999
aa(lp3116
Vweeks
p3117
aF117.84999999999999
aF118.14
aa(lp3118
Vfrom
p3119
aF118.14
aF118.36
aa(lp3120
Vtoday
p3121
aF118.36
aF118.93000000000001
aa(lp3122
Vand
p3123
aF119.22
aF119.45999999999999
aa(lp3124
Vsee
p3125
aF119.45999999999999
aF119.68000000000001
aa(lp3126
Vthe
p3127
aF119.68000000000001
aF119.84999999999999
aa(lp3128
Vresults
p3129
aF119.84999999999999
aF120.31
aa(lp3130
Vof
p3131
aF120.31
aF120.40000000000001
aa(lp3132
Vthe
p3133
aF120.40000000000001
aF120.48999999999999
aa(lp3134
Vfeedback
p3135
aF120.48999999999999
aF121.19
aa(lp3136
Vand
p3137
aF121.19
aF121.3
aa(lp3138
Vyour
p3139
aF121.3
aF121.41
aa(lp3140
Vproposed
p3141
aF121.41
aF121.91
aa(lp3142
Vrevisions
p3143
aF121.91
aF122.62
aasVconfidence
p3144
F0.94299999999999995
sVtranscript
p3145
Vso I'd like to follow up with you three weeks from today and see the results of the feedback and your proposed revisions 
p3146
sasVfinal
p3147
I01
sa(dp3148
Valternatives
p3149
(lp3150
(dp3151
Vtimestamps
p3152
(lp3153
(lp3154
Vno
p3155
aF123.44
aF123.66
aa(lp3156
Vproblem
p3157
aF123.66
aF124.08
aa(lp3158
VCarlos
p3159
aF124.08
aF124.68000000000001
aasVconfidence
p3160
F0.996
sVtranscript
p3161
Vno problem Carlos 
p3162
sasVfinal
p3163
I01
sa(dp3164
Valternatives
p3165
(lp3166
(dp3167
Vtimestamps
p3168
(lp3169
(lp3170
VI'm
p3171
aF125.41
aF125.62
aa(lp3172
Vgoing
p3173
aF125.62
aF125.84999999999999
aa(lp3174
Vto
p3175
aF125.84999999999999
aF125.97
aa(lp3176
Vblock
p3177
aF125.97
aF126.40000000000001
aa(lp3178
Vout
p3179
aF126.40000000000001
aF126.61
aa(lp3180
Vtime
p3181
aF126.61
aF127.06
aa(lp3182
Vfor
p3183
aF127.06
aF127.28
aa(lp3184
Vcollecting
p3185
aF127.28
aF127.84999999999999
aa(lp3186
Vfeedback
p3187
aF127.84999999999999
aF128.41
aa(lp3188
Vnext
p3189
aF128.41
aF128.74000000000001
aa(lp3190
Vweek
p3191
aF128.74000000000001
aF129.19999999999999
aasVconfidence
p3192
F0.98199999999999998
sVtranscript
p3193
VI'm going to block out time for collecting feedback next week 
p3194
sasVfinal
p3195
I01
sa(dp3196
Valternatives
p3197
(lp3198
(dp3199
Vtimestamps
p3200
(lp3201
(lp3202
Vand
p3203
aF129.61000000000001
aF129.81999999999999
aa(lp3204
Vthen
p3205
aF129.81999999999999
aF129.97999999999999
aa(lp3206
VMarion
p3207
aF129.97999999999999
aF130.47999999999999
aa(lp3208
Vand
p3209
aF130.47999999999999
aF130.63999999999999
aa(lp3210
VI
aF130.63999999999999
aF130.97999999999999
aa(lp3211
Vwill
p3212
aF131.00999999999999
aF131.19999999999999
aa(lp3213
Vcome
p3214
aF131.19999999999999
aF131.44999999999999
aa(lp3215
Vup
p3216
aF131.44999999999999
aF131.59999999999999
aa(lp3217
Vwith
p3218
aF131.59999999999999
aF131.71000000000001
aa(lp3219
Vsome
p3220
aF131.71000000000001
aF131.97
aa(lp3221
Videas
p3222
aF131.97
aF132.71000000000001
aasVconfidence
p3223
F0.91400000000000003
sVtranscript
p3224
Vand then Marion and I will come up with some ideas 
p3225
sasVfinal
p3226
I01
sa(dp3227
Valternatives
p3228
(lp3229
(dp3230
Vtimestamps
p3231
(lp3232
(lp3233
Vfantastic
p3234
aF133.75999999999999
aF134.72999999999999
aasVconfidence
p3235
F0.997
sVtranscript
p3236
Vfantastic 
p3237
sasVfinal
p3238
I01
sa(dp3239
Valternatives
p3240
(lp3241
(dp3242
Vtimestamps
p3243
(lp3244
(lp3245
Vso
p3246
aF135.25
aF135.62
aa(lp3247
Vwhat's
p3248
aF135.62
aF135.88
aa(lp3249
Vnext
p3250
aF135.88
aF136.27000000000001
aa(lp3251
Vyear
p3252
aF136.27000000000001
aF136.59999999999999
aasVconfidence
p3253
F0.86799999999999999
sVtranscript
p3254
Vso what's next year 
p3255
sasVfinal
p3256
I01
sa(dp3257
Valternatives
p3258
(lp3259
(dp3260
Vtimestamps
p3261
(lp3262
(lp3263
Vnumber
p3264
aF137.33000000000001
aF137.68000000000001
aa(lp3265
Vfour
p3266
aF137.68000000000001
aF138.28
aa(lp3267
Vis
p3268
aF138.28
aF138.43000000000001
aa(lp3269
VPR
p3270
aF138.43000000000001
aF138.94
aa(lp3271
Vactivities
p3272
aF138.94
aF139.83000000000001
aasVconfidence
p3273
F0.84599999999999997
sVtranscript
p3274
Vnumber four is PR activities 
p3275
sasVfinal
p3276
I01
sa(dp3277
Valternatives
p3278
(lp3279
(dp3280
Vtimestamps
p3281
(lp3282
(lp3283
Vthat
p3284
aF140.53
aF140.81
aa(lp3285
Vmeans
p3286
aF140.81
aF141.25999999999999
aa(lp3287
Vwhite
p3288
aF141.25999999999999
aF141.62
aa(lp3289
Vpaper
p3290
aF141.62
aF142.25999999999999
aa(lp3291
Vlocal
p3292
aF142.49000000000001
aF142.81999999999999
aa(lp3293
Vmedia
p3294
aF142.81999999999999
aF143.16
aa(lp3295
Vstuff
p3296
aF143.16
aF143.71000000000001
aasVconfidence
p3297
F0.94999999999999996
sVtranscript
p3298
Vthat means white paper local media stuff 
p3299
sasVfinal
p3300
I01
sa(dp3301
Valternatives
p3302
(lp3303
(dp3304
Vtimestamps
p3305
(lp3306
(lp3307
Vand
p3308
aF144.05000000000001
aF144.36000000000001
aa(lp3309
Vtaking
p3310
aF144.36000000000001
aF144.65000000000001
aa(lp3311
Vcare
p3312
aF144.65000000000001
aF144.87
aa(lp3313
Vof
p3314
aF144.87
aF144.99000000000001
aa(lp3315
Vpress
p3316
aF144.99000000000001
aF145.33000000000001
aa(lp3317
Vreleases
p3318
aF145.33000000000001
aF145.87
aa(lp3319
Vfor
p3320
aF145.87
aF146.06999999999999
aa(lp3321
Vour
p3322
aF146.06999999999999
aF146.19999999999999
aa(lp3323
Vnew
p3324
aF146.19999999999999
aF146.36000000000001
aa(lp3325
Vservices
p3326
aF146.36000000000001
aF146.97999999999999
aasVconfidence
p3327
F0.91100000000000003
sVtranscript
p3328
Vand taking care of press releases for our new services 
p3329
sasVfinal
p3330
I01
sasVresult_index
p3331
I0
sVwarnings
p3332
(lp3333
VUnknown arguments: continuous.
p3334
as.